
Piwowar.elf:     file format elf32-avr

Sections:
Idx Name          Size      VMA       LMA       File off  Algn
  0 .text         00002174  00000000  00000000  00000094  2**1
                  CONTENTS, ALLOC, LOAD, READONLY, CODE
  1 .data         00000016  00800060  00002174  00002208  2**0
                  CONTENTS, ALLOC, LOAD, DATA
  2 .bss          00000424  00800076  00800076  0000221e  2**0
                  ALLOC
  3 .stab         00000954  00000000  00000000  00002220  2**2
                  CONTENTS, READONLY, DEBUGGING
  4 .stabstr      00000183  00000000  00000000  00002b74  2**0
                  CONTENTS, READONLY, DEBUGGING
  5 .comment      0000002f  00000000  00000000  00002cf7  2**0
                  CONTENTS, READONLY

Disassembly of section .text:

00000000 <__vectors>:
       0:	0c 94 38 03 	jmp	0x670	; 0x670 <__ctors_end>
       4:	0c 94 55 03 	jmp	0x6aa	; 0x6aa <__bad_interrupt>
       8:	0c 94 55 03 	jmp	0x6aa	; 0x6aa <__bad_interrupt>
       c:	0c 94 55 03 	jmp	0x6aa	; 0x6aa <__bad_interrupt>
      10:	0c 94 55 03 	jmp	0x6aa	; 0x6aa <__bad_interrupt>
      14:	0c 94 55 03 	jmp	0x6aa	; 0x6aa <__bad_interrupt>
      18:	0c 94 55 03 	jmp	0x6aa	; 0x6aa <__bad_interrupt>
      1c:	0c 94 55 03 	jmp	0x6aa	; 0x6aa <__bad_interrupt>
      20:	0c 94 55 03 	jmp	0x6aa	; 0x6aa <__bad_interrupt>
      24:	0c 94 55 03 	jmp	0x6aa	; 0x6aa <__bad_interrupt>
      28:	0c 94 55 03 	jmp	0x6aa	; 0x6aa <__bad_interrupt>
      2c:	0c 94 55 03 	jmp	0x6aa	; 0x6aa <__bad_interrupt>
      30:	0c 94 55 03 	jmp	0x6aa	; 0x6aa <__bad_interrupt>
      34:	0c 94 55 03 	jmp	0x6aa	; 0x6aa <__bad_interrupt>
      38:	0c 94 55 03 	jmp	0x6aa	; 0x6aa <__bad_interrupt>
      3c:	0c 94 55 03 	jmp	0x6aa	; 0x6aa <__bad_interrupt>
      40:	0c 94 55 03 	jmp	0x6aa	; 0x6aa <__bad_interrupt>
      44:	0c 94 55 03 	jmp	0x6aa	; 0x6aa <__bad_interrupt>
      48:	0c 94 55 03 	jmp	0x6aa	; 0x6aa <__bad_interrupt>
      4c:	0c 94 55 03 	jmp	0x6aa	; 0x6aa <__bad_interrupt>
      50:	0c 94 55 03 	jmp	0x6aa	; 0x6aa <__bad_interrupt>

00000054 <font>:
      54:	00 00 00 00 00 3e 5b 4f 5b 3e 3e 6b 4f 6b 3e 1c     .....>[O[>>kOk>.
      64:	3e 7c 3e 1c 18 3c 7e 3c 18 1c 57 7d 57 1c 1c 5e     >|>..<~<..W}W..^
      74:	7f 5e 1c 00 18 3c 18 00 ff e7 c3 e7 ff 00 18 24     .^...<.........$
      84:	18 00 ff e7 db e7 ff 30 48 3a 06 0e 26 29 79 29     .......0H:..&)y)
      94:	26 40 7f 05 05 07 40 7f 05 25 3f 5a 3c e7 3c 5a     &@....@..%?Z<.<Z
      a4:	7f 3e 1c 1c 08 08 1c 1c 3e 7f 14 22 7f 22 14 5f     .>......>.."."._
      b4:	5f 00 5f 5f 06 09 7f 01 7f 00 66 89 95 6a 60 60     _.__......f..j``
      c4:	60 60 60 94 a2 ff a2 94 08 04 7e 04 08 10 20 7e     ```.......~... ~
      d4:	20 10 08 08 2a 1c 08 08 1c 2a 08 08 1e 10 10 10      ...*....*......
      e4:	10 0c 1e 0c 1e 0c 30 38 3e 38 30 06 0e 3e 0e 06     ......08>80..>..
      f4:	00 00 00 00 00 00 00 5f 00 00 00 07 00 07 00 14     ......._........
     104:	7f 14 7f 14 24 2a 7f 2a 12 23 13 08 64 62 36 49     ....$*.*.#..db6I
     114:	56 20 50 00 08 07 03 00 00 1c 22 41 00 00 41 22     V P......."A..A"
     124:	1c 00 2a 1c 7f 1c 2a 08 08 3e 08 08 00 80 70 30     ..*...*..>....p0
     134:	00 08 08 08 08 08 00 00 60 60 00 20 10 08 04 02     ........``. ....
     144:	3e 51 49 45 3e 00 42 7f 40 00 72 49 49 49 46 21     >QIE>.B.@.rIIIF!
     154:	41 49 4d 33 18 14 12 7f 10 27 45 45 45 39 3c 4a     AIM3.....'EEE9<J
     164:	49 49 31 41 21 11 09 07 36 49 49 49 36 46 49 49     II1A!...6III6FII
     174:	29 1e 00 00 14 00 00 00 40 34 00 00 00 08 14 22     ).......@4....."
     184:	41 14 14 14 14 14 00 41 22 14 08 02 01 59 09 06     A......A"....Y..
     194:	3e 41 5d 59 4e 7c 12 11 12 7c 7f 49 49 49 36 3e     >A]YN|...|.III6>
     1a4:	41 41 41 22 7f 41 41 41 3e 7f 49 49 49 41 7f 09     AAA".AAA>.IIIA..
     1b4:	09 09 01 3e 41 41 51 73 7f 08 08 08 7f 00 41 7f     ...>AAQs......A.
     1c4:	41 00 20 40 41 3f 01 7f 08 14 22 41 7f 40 40 40     A. @A?...."A.@@@
     1d4:	40 7f 02 1c 02 7f 7f 04 08 10 7f 3e 41 41 41 3e     @..........>AAA>
     1e4:	7f 09 09 09 06 3e 41 51 21 5e 7f 09 19 29 46 26     .....>AQ!^...)F&
     1f4:	49 49 49 32 03 01 7f 01 03 3f 40 40 40 3f 1f 20     III2.....?@@@?. 
     204:	40 20 1f 3f 40 38 40 3f 63 14 08 14 63 03 04 78     @ .?@8@?c...c..x
     214:	04 03 61 59 49 4d 43 00 7f 41 41 41 02 04 08 10     ..aYIMC..AAA....
     224:	20 00 41 41 41 7f 04 02 01 02 04 40 40 40 40 40      .AAA......@@@@@
     234:	00 03 07 08 00 20 54 54 78 40 7f 28 44 44 38 38     ..... TTx@.(DD88
     244:	44 44 44 28 38 44 44 28 7f 38 54 54 54 18 00 08     DDD(8DD(.8TTT...
     254:	7e 09 02 18 a4 a4 9c 78 7f 08 04 04 78 00 44 7d     ~......x....x.D}
     264:	40 00 20 40 40 3d 00 7f 10 28 44 00 00 41 7f 40     @. @@=...(D..A.@
     274:	00 7c 04 78 04 78 7c 08 04 04 78 38 44 44 44 38     .|.x.x|...x8DDD8
     284:	fc 18 24 24 18 18 24 24 18 fc 7c 08 04 04 08 48     ..$$..$$..|....H
     294:	54 54 54 24 04 04 3f 44 24 3c 40 40 20 7c 1c 20     TTT$..?D$<@@ |. 
     2a4:	40 20 1c 3c 40 30 40 3c 44 28 10 28 44 4c 90 90     @ .<@0@<D(.(DL..
     2b4:	90 7c 44 64 54 4c 44 00 08 36 41 00 00 00 77 00     .|DdTLD..6A...w.
     2c4:	00 00 41 36 08 00 02 01 02 04 02 3c 26 23 26 3c     ..A6.......<&#&<
     2d4:	1e a1 a1 61 12 3a 40 40 20 7a 38 54 54 55 59 21     ...a.:@@ z8TTUY!
     2e4:	55 55 79 41 22 54 54 78 42 21 55 54 78 40 20 54     UUyA"TTxB!UTx@ T
     2f4:	55 79 40 0c 1e 52 72 12 39 55 55 55 59 39 54 54     Uy@..Rr.9UUUY9TT
     304:	54 59 39 55 54 54 58 00 00 45 7c 41 00 02 45 7d     TY9UTTX..E|A..E}
     314:	42 00 01 45 7c 40 7d 12 11 12 7d f0 28 25 28 f0     B..E|@}...}.(%(.
     324:	7c 54 55 45 00 20 54 54 7c 54 7c 0a 09 7f 49 32     |TUE. TT|T|...I2
     334:	49 49 49 32 3a 44 44 44 3a 32 4a 48 48 30 3a 41     III2:DDD:2JHH0:A
     344:	41 21 7a 3a 42 40 20 78 00 9d a0 a0 7d 3d 42 42     A!z:B@ x....}=BB
     354:	42 3d 3d 40 40 40 3d 3c 24 ff 24 24 48 7e 49 43     B==@@@=<$.$$H~IC
     364:	66 2b 2f fc 2f 2b ff 09 29 f6 20 c0 88 7e 09 03     f+/./+..). ..~..
     374:	20 54 54 79 41 00 00 44 7d 41 30 48 48 4a 32 38      TTyA..D}A0HHJ28
     384:	40 40 22 7a 00 7a 0a 0a 72 7d 0d 19 31 7d 26 29     @@"z.z..r}..1}&)
     394:	29 2f 28 26 29 29 29 26 30 48 4d 40 20 38 08 08     )/(&)))&0HM@ 8..
     3a4:	08 08 08 08 08 08 38 2f 10 c8 ac ba 2f 10 28 34     ......8/..../.(4
     3b4:	fa 00 00 7b 00 00 08 14 2a 14 22 22 14 2a 14 08     ...{....*."".*..
     3c4:	aa 00 55 00 aa aa 55 aa 55 aa 00 00 00 ff 00 10     ..U...U.U.......
     3d4:	10 10 ff 00 14 14 14 ff 00 10 10 ff 00 ff 10 10     ................
     3e4:	f0 10 f0 14 14 14 fc 00 14 14 f7 00 ff 00 00 ff     ................
     3f4:	00 ff 14 14 f4 04 fc 14 14 17 10 1f 10 10 1f 10     ................
     404:	1f 14 14 14 1f 00 10 10 10 f0 00 00 00 00 1f 10     ................
     414:	10 10 10 1f 10 10 10 10 f0 10 00 00 00 ff 10 10     ................
     424:	10 10 10 10 10 10 10 ff 10 00 00 00 ff 14 00 00     ................
     434:	ff 00 ff 00 00 1f 10 17 00 00 fc 04 f4 14 14 17     ................
     444:	10 17 14 14 f4 04 f4 00 00 ff 00 f7 14 14 14 14     ................
     454:	14 14 14 f7 00 f7 14 14 14 17 14 10 10 1f 10 1f     ................
     464:	14 14 14 f4 14 10 10 f0 10 f0 00 00 1f 10 1f 00     ................
     474:	00 00 1f 14 00 00 00 fc 14 00 00 f0 10 f0 10 10     ................
     484:	ff 10 ff 14 14 14 ff 14 10 10 10 1f 00 00 00 00     ................
     494:	f0 10 ff ff ff ff ff f0 f0 f0 f0 f0 ff ff ff 00     ................
     4a4:	00 00 00 00 ff ff 0f 0f 0f 0f 0f 38 44 44 38 44     ...........8DD8D
     4b4:	fc 4a 4a 4a 34 7e 02 02 06 06 02 7e 02 7e 02 63     .JJJ4~.....~.~.c
     4c4:	55 49 41 63 38 44 44 3c 04 40 7e 20 1e 20 06 02     UIAc8DD<.@~ . ..
     4d4:	7e 02 02 99 a5 e7 a5 99 1c 2a 49 2a 1c 4c 72 01     ~........*I*.Lr.
     4e4:	72 4c 30 4a 4d 4d 30 30 48 78 48 30 bc 62 5a 46     rL0JMM00HxH0.bZF
     4f4:	3d 3e 49 49 49 00 7e 01 01 01 7e 2a 2a 2a 2a 2a     =>III.~...~*****
     504:	44 44 5f 44 44 40 51 4a 44 40 40 44 4a 51 40 00     DD_DD@QJD@@DJQ@.
     514:	00 ff 01 03 e0 80 ff 00 00 08 08 6b 6b 08 36 12     ...........kk.6.
     524:	36 24 36 06 0f 09 0f 06 00 00 18 18 00 00 00 10     6$6.............
     534:	10 00 30 40 ff 01 01 00 1f 01 01 1e 00 19 1d 17     ..0@............
     544:	12 00 3c 3c 3c 3c 00 00 00 00 00                    ..<<<<.....

0000054f <rinse>:
	...
     55b:	00 00 1f f0 00 00 00 00 ff fe 00 00 00 03 ff ff     ................
     56b:	80 00 00 0f ff ff e0 00 00 1f ff ff f0 00 00 7f     ................
     57b:	ff ff fc 00 00 ff ff ff fe 00 01 ff ff ff ff 00     ................
     58b:	03 ff ff ff ff 80 03 ff f9 ff ff 80 07 ff f8 7f     ................
     59b:	ff c0 07 ff fc 3f ff c0 0f ff fc 3f ff e0 0f ff     .....?.....?....
     5ab:	fc 1f ff e0 1f ff f8 1f ff f0 1f ff f8 0f ff f0     ................
     5bb:	1f ff f8 0f ff f0 3f ff f0 07 ff f8 3f ff f0 07     ......?.....?...
     5cb:	ff f8 3f ff e0 03 ff f8 3f ff e0 03 ff f8 3f ff     ..?.....?.....?.
     5db:	c0 03 ff f8 3f ff c0 01 ff f8 3f ff 80 01 ff f8     ....?.....?.....
     5eb:	3f ff 80 01 ff f8 3f ff 00 01 ff f8 1f ff 00 01     ?.....?.........
     5fb:	ff f0 1f ff 00 01 ff f0 1f ff 00 01 ff f0 0f ff     ................
     60b:	00 01 ff e0 0f ff 80 03 ff e0 07 ff c0 07 ff c0     ................
     61b:	07 ff e0 0f ff c0 03 ff f8 3f ff 80 01 ff ff ff     .........?......
     62b:	ff 00 01 ff ff ff ff 00 00 ff ff ff fe 00 00 7f     ................
     63b:	ff ff fc 00 00 1f ff ff f0 00 00 0f ff ff e0 00     ................
     64b:	00 03 ff ff 80 00 00 00 ff fe 00 00 00 00 1f f0     ................
	...

00000670 <__ctors_end>:
     670:	11 24       	eor	r1, r1
     672:	1f be       	out	0x3f, r1	; 63
     674:	cf e5       	ldi	r28, 0x5F	; 95
     676:	d8 e0       	ldi	r29, 0x08	; 8
     678:	de bf       	out	0x3e, r29	; 62
     67a:	cd bf       	out	0x3d, r28	; 61

0000067c <__do_copy_data>:
     67c:	10 e0       	ldi	r17, 0x00	; 0
     67e:	a0 e6       	ldi	r26, 0x60	; 96
     680:	b0 e0       	ldi	r27, 0x00	; 0
     682:	e4 e7       	ldi	r30, 0x74	; 116
     684:	f1 e2       	ldi	r31, 0x21	; 33
     686:	02 c0       	rjmp	.+4      	; 0x68c <__do_copy_data+0x10>
     688:	05 90       	lpm	r0, Z+
     68a:	0d 92       	st	X+, r0
     68c:	a6 37       	cpi	r26, 0x76	; 118
     68e:	b1 07       	cpc	r27, r17
     690:	d9 f7       	brne	.-10     	; 0x688 <__do_copy_data+0xc>

00000692 <__do_clear_bss>:
     692:	24 e0       	ldi	r18, 0x04	; 4
     694:	a6 e7       	ldi	r26, 0x76	; 118
     696:	b0 e0       	ldi	r27, 0x00	; 0
     698:	01 c0       	rjmp	.+2      	; 0x69c <.do_clear_bss_start>

0000069a <.do_clear_bss_loop>:
     69a:	1d 92       	st	X+, r1

0000069c <.do_clear_bss_start>:
     69c:	aa 39       	cpi	r26, 0x9A	; 154
     69e:	b2 07       	cpc	r27, r18
     6a0:	e1 f7       	brne	.-8      	; 0x69a <.do_clear_bss_loop>
     6a2:	0e 94 17 10 	call	0x202e	; 0x202e <main>
     6a6:	0c 94 b8 10 	jmp	0x2170	; 0x2170 <_exit>

000006aa <__bad_interrupt>:
     6aa:	0c 94 00 00 	jmp	0	; 0x0 <__vectors>

000006ae <mp_wysBitmap_P>:
     6ae:	2f 92       	push	r2
     6b0:	3f 92       	push	r3
     6b2:	4f 92       	push	r4
     6b4:	5f 92       	push	r5
     6b6:	6f 92       	push	r6
     6b8:	7f 92       	push	r7
     6ba:	8f 92       	push	r8
     6bc:	9f 92       	push	r9
     6be:	af 92       	push	r10
     6c0:	bf 92       	push	r11
     6c2:	cf 92       	push	r12
     6c4:	df 92       	push	r13
     6c6:	ef 92       	push	r14
     6c8:	ff 92       	push	r15
     6ca:	0f 93       	push	r16
     6cc:	1f 93       	push	r17
     6ce:	cf 93       	push	r28
     6d0:	df 93       	push	r29
     6d2:	cd b7       	in	r28, 0x3d	; 61
     6d4:	de b7       	in	r29, 0x3e	; 62
     6d6:	27 97       	sbiw	r28, 0x07	; 7
     6d8:	0f b6       	in	r0, 0x3f	; 63
     6da:	f8 94       	cli
     6dc:	de bf       	out	0x3e, r29	; 62
     6de:	0f be       	out	0x3f, r0	; 63
     6e0:	cd bf       	out	0x3d, r28	; 61
     6e2:	4c 01       	movw	r8, r24
     6e4:	3b 01       	movw	r6, r22
     6e6:	2a 01       	movw	r4, r20
     6e8:	80 2f       	mov	r24, r16
     6ea:	5e 2d       	mov	r21, r14
     6ec:	02 2f       	mov	r16, r18
     6ee:	10 e0       	ldi	r17, 0x00	; 0
     6f0:	18 01       	movw	r2, r16
     6f2:	27 e0       	ldi	r18, 0x07	; 7
     6f4:	22 0e       	add	r2, r18
     6f6:	31 1c       	adc	r3, r1
     6f8:	93 e0       	ldi	r25, 0x03	; 3
     6fa:	35 94       	asr	r3
     6fc:	27 94       	ror	r2
     6fe:	9a 95       	dec	r25
     700:	e1 f7       	brne	.-8      	; 0x6fa <mp_wysBitmap_P+0x4c>
     702:	a1 2c       	mov	r10, r1
     704:	b1 2c       	mov	r11, r1
     706:	c1 2c       	mov	r12, r1
     708:	d1 2c       	mov	r13, r1
     70a:	28 2f       	mov	r18, r24
     70c:	30 e0       	ldi	r19, 0x00	; 0
     70e:	3a 83       	std	Y+2, r19	; 0x02
     710:	29 83       	std	Y+1, r18	; 0x01
     712:	20 e8       	ldi	r18, 0x80	; 128
     714:	30 e0       	ldi	r19, 0x00	; 0
     716:	3e c0       	rjmp	.+124    	; 0x794 <mp_wysBitmap_P+0xe6>
     718:	ee 81       	ldd	r30, Y+6	; 0x06
     71a:	ff 81       	ldd	r31, Y+7	; 0x07
     71c:	83 e0       	ldi	r24, 0x03	; 3
     71e:	f5 95       	asr	r31
     720:	e7 95       	ror	r30
     722:	8a 95       	dec	r24
     724:	e1 f7       	brne	.-8      	; 0x71e <mp_wysBitmap_P+0x70>
     726:	ea 0d       	add	r30, r10
     728:	fb 1d       	adc	r31, r11
     72a:	e4 0d       	add	r30, r4
     72c:	f5 1d       	adc	r31, r5
     72e:	e4 91       	lpm	r30, Z
     730:	f0 e0       	ldi	r31, 0x00	; 0
     732:	8e 81       	ldd	r24, Y+6	; 0x06
     734:	9f 81       	ldd	r25, Y+7	; 0x07
     736:	87 70       	andi	r24, 0x07	; 7
     738:	99 27       	eor	r25, r25
     73a:	b9 01       	movw	r22, r18
     73c:	02 c0       	rjmp	.+4      	; 0x742 <mp_wysBitmap_P+0x94>
     73e:	75 95       	asr	r23
     740:	67 95       	ror	r22
     742:	8a 95       	dec	r24
     744:	e2 f7       	brpl	.-8      	; 0x73e <mp_wysBitmap_P+0x90>
     746:	e6 23       	and	r30, r22
     748:	f7 23       	and	r31, r23
     74a:	ef 2b       	or	r30, r31
     74c:	71 f0       	breq	.+28     	; 0x76a <mp_wysBitmap_P+0xbc>
     74e:	45 2f       	mov	r20, r21
     750:	b7 01       	movw	r22, r14
     752:	8e 81       	ldd	r24, Y+6	; 0x06
     754:	9f 81       	ldd	r25, Y+7	; 0x07
     756:	88 0d       	add	r24, r8
     758:	99 1d       	adc	r25, r9
     75a:	2c 83       	std	Y+4, r18	; 0x04
     75c:	3d 83       	std	Y+5, r19	; 0x05
     75e:	5b 83       	std	Y+3, r21	; 0x03
     760:	0e 94 43 0c 	call	0x1886	; 0x1886 <mp_ssd1306_drawPixel>
     764:	5b 81       	ldd	r21, Y+3	; 0x03
     766:	3d 81       	ldd	r19, Y+5	; 0x05
     768:	2c 81       	ldd	r18, Y+4	; 0x04
     76a:	8e 81       	ldd	r24, Y+6	; 0x06
     76c:	9f 81       	ldd	r25, Y+7	; 0x07
     76e:	01 96       	adiw	r24, 0x01	; 1
     770:	9f 83       	std	Y+7, r25	; 0x07
     772:	8e 83       	std	Y+6, r24	; 0x06
     774:	05 c0       	rjmp	.+10     	; 0x780 <mp_wysBitmap_P+0xd2>
     776:	1f 82       	std	Y+7, r1	; 0x07
     778:	1e 82       	std	Y+6, r1	; 0x06
     77a:	76 01       	movw	r14, r12
     77c:	e6 0c       	add	r14, r6
     77e:	f7 1c       	adc	r15, r7
     780:	ee 81       	ldd	r30, Y+6	; 0x06
     782:	ff 81       	ldd	r31, Y+7	; 0x07
     784:	e0 17       	cp	r30, r16
     786:	f1 07       	cpc	r31, r17
     788:	3c f2       	brlt	.-114    	; 0x718 <mp_wysBitmap_P+0x6a>
     78a:	ff ef       	ldi	r31, 0xFF	; 255
     78c:	cf 1a       	sub	r12, r31
     78e:	df 0a       	sbc	r13, r31
     790:	a2 0c       	add	r10, r2
     792:	b3 1c       	adc	r11, r3
     794:	69 81       	ldd	r22, Y+1	; 0x01
     796:	7a 81       	ldd	r23, Y+2	; 0x02
     798:	c6 16       	cp	r12, r22
     79a:	d7 06       	cpc	r13, r23
     79c:	64 f3       	brlt	.-40     	; 0x776 <mp_wysBitmap_P+0xc8>
     79e:	27 96       	adiw	r28, 0x07	; 7
     7a0:	0f b6       	in	r0, 0x3f	; 63
     7a2:	f8 94       	cli
     7a4:	de bf       	out	0x3e, r29	; 62
     7a6:	0f be       	out	0x3f, r0	; 63
     7a8:	cd bf       	out	0x3d, r28	; 61
     7aa:	df 91       	pop	r29
     7ac:	cf 91       	pop	r28
     7ae:	1f 91       	pop	r17
     7b0:	0f 91       	pop	r16
     7b2:	ff 90       	pop	r15
     7b4:	ef 90       	pop	r14
     7b6:	df 90       	pop	r13
     7b8:	cf 90       	pop	r12
     7ba:	bf 90       	pop	r11
     7bc:	af 90       	pop	r10
     7be:	9f 90       	pop	r9
     7c0:	8f 90       	pop	r8
     7c2:	7f 90       	pop	r7
     7c4:	6f 90       	pop	r6
     7c6:	5f 90       	pop	r5
     7c8:	4f 90       	pop	r4
     7ca:	3f 90       	pop	r3
     7cc:	2f 90       	pop	r2
     7ce:	08 95       	ret

000007d0 <mp_narLinieDow>:
     7d0:	3f 92       	push	r3
     7d2:	4f 92       	push	r4
     7d4:	5f 92       	push	r5
     7d6:	6f 92       	push	r6
     7d8:	7f 92       	push	r7
     7da:	8f 92       	push	r8
     7dc:	9f 92       	push	r9
     7de:	af 92       	push	r10
     7e0:	bf 92       	push	r11
     7e2:	cf 92       	push	r12
     7e4:	df 92       	push	r13
     7e6:	ef 92       	push	r14
     7e8:	ff 92       	push	r15
     7ea:	0f 93       	push	r16
     7ec:	1f 93       	push	r17
     7ee:	cf 93       	push	r28
     7f0:	df 93       	push	r29
     7f2:	ec 01       	movw	r28, r24
     7f4:	7b 01       	movw	r14, r22
     7f6:	6a 01       	movw	r12, r20
     7f8:	30 2e       	mov	r3, r16
     7fa:	a9 01       	movw	r20, r18
     7fc:	46 1b       	sub	r20, r22
     7fe:	57 0b       	sbc	r21, r23
     800:	57 ff       	sbrs	r21, 7
     802:	03 c0       	rjmp	.+6      	; 0x80a <mp_narLinieDow+0x3a>
     804:	51 95       	neg	r21
     806:	41 95       	neg	r20
     808:	51 09       	sbc	r21, r1
     80a:	c6 01       	movw	r24, r12
     80c:	8c 1b       	sub	r24, r28
     80e:	9d 0b       	sbc	r25, r29
     810:	97 ff       	sbrs	r25, 7
     812:	03 c0       	rjmp	.+6      	; 0x81a <mp_narLinieDow+0x4a>
     814:	91 95       	neg	r25
     816:	81 95       	neg	r24
     818:	91 09       	sbc	r25, r1
     81a:	44 24       	eor	r4, r4
     81c:	43 94       	inc	r4
     81e:	51 2c       	mov	r5, r1
     820:	84 17       	cp	r24, r20
     822:	95 07       	cpc	r25, r21
     824:	14 f0       	brlt	.+4      	; 0x82a <mp_narLinieDow+0x5a>
     826:	41 2c       	mov	r4, r1
     828:	51 2c       	mov	r5, r1
     82a:	41 14       	cp	r4, r1
     82c:	51 04       	cpc	r5, r1
     82e:	51 f0       	breq	.+20     	; 0x844 <mp_narLinieDow+0x74>
     830:	9c 2d       	mov	r25, r12
     832:	8d 2d       	mov	r24, r13
     834:	69 01       	movw	r12, r18
     836:	29 2f       	mov	r18, r25
     838:	38 2f       	mov	r19, r24
     83a:	9c 2f       	mov	r25, r28
     83c:	8d 2f       	mov	r24, r29
     83e:	e7 01       	movw	r28, r14
     840:	e9 2e       	mov	r14, r25
     842:	f8 2e       	mov	r15, r24
     844:	cc 16       	cp	r12, r28
     846:	dd 06       	cpc	r13, r29
     848:	54 f4       	brge	.+20     	; 0x85e <mp_narLinieDow+0x8e>
     84a:	9e 2d       	mov	r25, r14
     84c:	8f 2d       	mov	r24, r15
     84e:	79 01       	movw	r14, r18
     850:	29 2f       	mov	r18, r25
     852:	38 2f       	mov	r19, r24
     854:	9c 2f       	mov	r25, r28
     856:	8d 2f       	mov	r24, r29
     858:	e6 01       	movw	r28, r12
     85a:	c9 2e       	mov	r12, r25
     85c:	d8 2e       	mov	r13, r24
     85e:	56 01       	movw	r10, r12
     860:	ac 1a       	sub	r10, r28
     862:	bd 0a       	sbc	r11, r29
     864:	49 01       	movw	r8, r18
     866:	8e 18       	sub	r8, r14
     868:	9f 08       	sbc	r9, r15
     86a:	97 fe       	sbrs	r9, 7
     86c:	03 c0       	rjmp	.+6      	; 0x874 <__stack+0x15>
     86e:	91 94       	neg	r9
     870:	81 94       	neg	r8
     872:	91 08       	sbc	r9, r1
     874:	35 01       	movw	r6, r10
     876:	b7 fe       	sbrs	r11, 7
     878:	03 c0       	rjmp	.+6      	; 0x880 <__stack+0x21>
     87a:	8f ef       	ldi	r24, 0xFF	; 255
     87c:	68 1a       	sub	r6, r24
     87e:	78 0a       	sbc	r7, r24
     880:	75 94       	asr	r7
     882:	67 94       	ror	r6
     884:	e2 16       	cp	r14, r18
     886:	f3 06       	cpc	r15, r19
     888:	1c f4       	brge	.+6      	; 0x890 <__stack+0x31>
     88a:	01 e0       	ldi	r16, 0x01	; 1
     88c:	10 e0       	ldi	r17, 0x00	; 0
     88e:	17 c0       	rjmp	.+46     	; 0x8be <__stack+0x5f>
     890:	0f ef       	ldi	r16, 0xFF	; 255
     892:	1f ef       	ldi	r17, 0xFF	; 255
     894:	14 c0       	rjmp	.+40     	; 0x8be <__stack+0x5f>
     896:	43 2d       	mov	r20, r3
     898:	41 14       	cp	r4, r1
     89a:	51 04       	cpc	r5, r1
     89c:	19 f0       	breq	.+6      	; 0x8a4 <__stack+0x45>
     89e:	be 01       	movw	r22, r28
     8a0:	c7 01       	movw	r24, r14
     8a2:	02 c0       	rjmp	.+4      	; 0x8a8 <__stack+0x49>
     8a4:	b7 01       	movw	r22, r14
     8a6:	ce 01       	movw	r24, r28
     8a8:	0e 94 43 0c 	call	0x1886	; 0x1886 <mp_ssd1306_drawPixel>
     8ac:	68 18       	sub	r6, r8
     8ae:	79 08       	sbc	r7, r9
     8b0:	77 fe       	sbrs	r7, 7
     8b2:	04 c0       	rjmp	.+8      	; 0x8bc <__stack+0x5d>
     8b4:	e0 0e       	add	r14, r16
     8b6:	f1 1e       	adc	r15, r17
     8b8:	6a 0c       	add	r6, r10
     8ba:	7b 1c       	adc	r7, r11
     8bc:	21 96       	adiw	r28, 0x01	; 1
     8be:	cc 16       	cp	r12, r28
     8c0:	dd 06       	cpc	r13, r29
     8c2:	4c f7       	brge	.-46     	; 0x896 <__stack+0x37>
     8c4:	df 91       	pop	r29
     8c6:	cf 91       	pop	r28
     8c8:	1f 91       	pop	r17
     8ca:	0f 91       	pop	r16
     8cc:	ff 90       	pop	r15
     8ce:	ef 90       	pop	r14
     8d0:	df 90       	pop	r13
     8d2:	cf 90       	pop	r12
     8d4:	bf 90       	pop	r11
     8d6:	af 90       	pop	r10
     8d8:	9f 90       	pop	r9
     8da:	8f 90       	pop	r8
     8dc:	7f 90       	pop	r7
     8de:	6f 90       	pop	r6
     8e0:	5f 90       	pop	r5
     8e2:	4f 90       	pop	r4
     8e4:	3f 90       	pop	r3
     8e6:	08 95       	ret

000008e8 <mp_narLiniePoz>:
     8e8:	0f 93       	push	r16
     8ea:	48 0f       	add	r20, r24
     8ec:	59 1f       	adc	r21, r25
     8ee:	41 50       	subi	r20, 0x01	; 1
     8f0:	51 09       	sbc	r21, r1
     8f2:	02 2f       	mov	r16, r18
     8f4:	9b 01       	movw	r18, r22
     8f6:	0e 94 e8 03 	call	0x7d0	; 0x7d0 <mp_narLinieDow>
     8fa:	0f 91       	pop	r16
     8fc:	08 95       	ret

000008fe <mp_narLiniePion>:
     8fe:	0f 93       	push	r16
     900:	46 0f       	add	r20, r22
     902:	57 1f       	adc	r21, r23
     904:	41 50       	subi	r20, 0x01	; 1
     906:	51 09       	sbc	r21, r1
     908:	02 2f       	mov	r16, r18
     90a:	9a 01       	movw	r18, r20
     90c:	ac 01       	movw	r20, r24
     90e:	0e 94 e8 03 	call	0x7d0	; 0x7d0 <mp_narLinieDow>
     912:	0f 91       	pop	r16
     914:	08 95       	ret

00000916 <mp_narOkrag>:
     916:	2f 92       	push	r2
     918:	3f 92       	push	r3
     91a:	5f 92       	push	r5
     91c:	6f 92       	push	r6
     91e:	7f 92       	push	r7
     920:	8f 92       	push	r8
     922:	9f 92       	push	r9
     924:	af 92       	push	r10
     926:	bf 92       	push	r11
     928:	cf 92       	push	r12
     92a:	df 92       	push	r13
     92c:	ef 92       	push	r14
     92e:	ff 92       	push	r15
     930:	0f 93       	push	r16
     932:	1f 93       	push	r17
     934:	cf 93       	push	r28
     936:	df 93       	push	r29
     938:	00 d0       	rcall	.+0      	; 0x93a <mp_narOkrag+0x24>
     93a:	00 d0       	rcall	.+0      	; 0x93c <mp_narOkrag+0x26>
     93c:	cd b7       	in	r28, 0x3d	; 61
     93e:	de b7       	in	r29, 0x3e	; 62
     940:	8c 01       	movw	r16, r24
     942:	7c 83       	std	Y+4, r23	; 0x04
     944:	6b 83       	std	Y+3, r22	; 0x03
     946:	52 2e       	mov	r5, r18
     948:	e4 2e       	mov	r14, r20
     94a:	f1 2c       	mov	r15, r1
     94c:	cc 24       	eor	r12, r12
     94e:	c3 94       	inc	r12
     950:	d1 2c       	mov	r13, r1
     952:	ce 18       	sub	r12, r14
     954:	df 08       	sbc	r13, r15
     956:	aa 24       	eor	r10, r10
     958:	bb 24       	eor	r11, r11
     95a:	ae 18       	sub	r10, r14
     95c:	bf 08       	sbc	r11, r15
     95e:	aa 0c       	add	r10, r10
     960:	bb 1c       	adc	r11, r11
     962:	6e 0d       	add	r22, r14
     964:	7f 1d       	adc	r23, r15
     966:	42 2f       	mov	r20, r18
     968:	0e 94 43 0c 	call	0x1886	; 0x1886 <mp_ssd1306_drawPixel>
     96c:	6b 81       	ldd	r22, Y+3	; 0x03
     96e:	7c 81       	ldd	r23, Y+4	; 0x04
     970:	6e 19       	sub	r22, r14
     972:	7f 09       	sbc	r23, r15
     974:	45 2d       	mov	r20, r5
     976:	c8 01       	movw	r24, r16
     978:	0e 94 43 0c 	call	0x1886	; 0x1886 <mp_ssd1306_drawPixel>
     97c:	45 2d       	mov	r20, r5
     97e:	6b 81       	ldd	r22, Y+3	; 0x03
     980:	7c 81       	ldd	r23, Y+4	; 0x04
     982:	c8 01       	movw	r24, r16
     984:	8e 0d       	add	r24, r14
     986:	9f 1d       	adc	r25, r15
     988:	0e 94 43 0c 	call	0x1886	; 0x1886 <mp_ssd1306_drawPixel>
     98c:	45 2d       	mov	r20, r5
     98e:	6b 81       	ldd	r22, Y+3	; 0x03
     990:	7c 81       	ldd	r23, Y+4	; 0x04
     992:	c8 01       	movw	r24, r16
     994:	8e 19       	sub	r24, r14
     996:	9f 09       	sbc	r25, r15
     998:	0e 94 43 0c 	call	0x1886	; 0x1886 <mp_ssd1306_drawPixel>
     99c:	22 24       	eor	r2, r2
     99e:	23 94       	inc	r2
     9a0:	31 2c       	mov	r3, r1
     9a2:	fa 82       	std	Y+2, r15	; 0x02
     9a4:	e9 82       	std	Y+1, r14	; 0x01
     9a6:	50 c0       	rjmp	.+160    	; 0xa48 <mp_narOkrag+0x132>
     9a8:	d7 fc       	sbrc	r13, 7
     9aa:	0a c0       	rjmp	.+20     	; 0x9c0 <mp_narOkrag+0xaa>
     9ac:	8b 81       	ldd	r24, Y+3	; 0x03
     9ae:	9c 81       	ldd	r25, Y+4	; 0x04
     9b0:	01 97       	sbiw	r24, 0x01	; 1
     9b2:	9c 83       	std	Y+4, r25	; 0x04
     9b4:	8b 83       	std	Y+3, r24	; 0x03
     9b6:	92 e0       	ldi	r25, 0x02	; 2
     9b8:	a9 0e       	add	r10, r25
     9ba:	b1 1c       	adc	r11, r1
     9bc:	ca 0c       	add	r12, r10
     9be:	db 1c       	adc	r13, r11
     9c0:	0f 5f       	subi	r16, 0xFF	; 255
     9c2:	1f 4f       	sbci	r17, 0xFF	; 255
     9c4:	e2 e0       	ldi	r30, 0x02	; 2
     9c6:	2e 0e       	add	r2, r30
     9c8:	31 1c       	adc	r3, r1
     9ca:	c2 0c       	add	r12, r2
     9cc:	d3 1c       	adc	r13, r3
     9ce:	8b 80       	ldd	r8, Y+3	; 0x03
     9d0:	9c 80       	ldd	r9, Y+4	; 0x04
     9d2:	8e 0c       	add	r8, r14
     9d4:	9f 1c       	adc	r9, r15
     9d6:	45 2d       	mov	r20, r5
     9d8:	b4 01       	movw	r22, r8
     9da:	c8 01       	movw	r24, r16
     9dc:	0e 94 43 0c 	call	0x1886	; 0x1886 <mp_ssd1306_drawPixel>
     9e0:	45 2d       	mov	r20, r5
     9e2:	b4 01       	movw	r22, r8
     9e4:	c8 01       	movw	r24, r16
     9e6:	0e 94 43 0c 	call	0x1886	; 0x1886 <mp_ssd1306_drawPixel>
     9ea:	8b 80       	ldd	r8, Y+3	; 0x03
     9ec:	9c 80       	ldd	r9, Y+4	; 0x04
     9ee:	8e 18       	sub	r8, r14
     9f0:	9f 08       	sbc	r9, r15
     9f2:	45 2d       	mov	r20, r5
     9f4:	b4 01       	movw	r22, r8
     9f6:	c8 01       	movw	r24, r16
     9f8:	0e 94 43 0c 	call	0x1886	; 0x1886 <mp_ssd1306_drawPixel>
     9fc:	45 2d       	mov	r20, r5
     9fe:	b4 01       	movw	r22, r8
     a00:	c8 01       	movw	r24, r16
     a02:	0e 94 43 0c 	call	0x1886	; 0x1886 <mp_ssd1306_drawPixel>
     a06:	69 80       	ldd	r6, Y+1	; 0x01
     a08:	7a 80       	ldd	r7, Y+2	; 0x02
     a0a:	60 0e       	add	r6, r16
     a0c:	71 1e       	adc	r7, r17
     a0e:	45 2d       	mov	r20, r5
     a10:	6b 81       	ldd	r22, Y+3	; 0x03
     a12:	7c 81       	ldd	r23, Y+4	; 0x04
     a14:	c3 01       	movw	r24, r6
     a16:	0e 94 43 0c 	call	0x1886	; 0x1886 <mp_ssd1306_drawPixel>
     a1a:	48 01       	movw	r8, r16
     a1c:	89 81       	ldd	r24, Y+1	; 0x01
     a1e:	9a 81       	ldd	r25, Y+2	; 0x02
     a20:	88 1a       	sub	r8, r24
     a22:	99 0a       	sbc	r9, r25
     a24:	45 2d       	mov	r20, r5
     a26:	6b 81       	ldd	r22, Y+3	; 0x03
     a28:	7c 81       	ldd	r23, Y+4	; 0x04
     a2a:	c4 01       	movw	r24, r8
     a2c:	0e 94 43 0c 	call	0x1886	; 0x1886 <mp_ssd1306_drawPixel>
     a30:	45 2d       	mov	r20, r5
     a32:	6b 81       	ldd	r22, Y+3	; 0x03
     a34:	7c 81       	ldd	r23, Y+4	; 0x04
     a36:	c3 01       	movw	r24, r6
     a38:	0e 94 43 0c 	call	0x1886	; 0x1886 <mp_ssd1306_drawPixel>
     a3c:	45 2d       	mov	r20, r5
     a3e:	6b 81       	ldd	r22, Y+3	; 0x03
     a40:	7c 81       	ldd	r23, Y+4	; 0x04
     a42:	c4 01       	movw	r24, r8
     a44:	0e 94 43 0c 	call	0x1886	; 0x1886 <mp_ssd1306_drawPixel>
     a48:	eb 81       	ldd	r30, Y+3	; 0x03
     a4a:	fc 81       	ldd	r31, Y+4	; 0x04
     a4c:	0e 17       	cp	r16, r30
     a4e:	1f 07       	cpc	r17, r31
     a50:	0c f4       	brge	.+2      	; 0xa54 <mp_narOkrag+0x13e>
     a52:	aa cf       	rjmp	.-172    	; 0x9a8 <mp_narOkrag+0x92>
     a54:	0f 90       	pop	r0
     a56:	0f 90       	pop	r0
     a58:	0f 90       	pop	r0
     a5a:	0f 90       	pop	r0
     a5c:	df 91       	pop	r29
     a5e:	cf 91       	pop	r28
     a60:	1f 91       	pop	r17
     a62:	0f 91       	pop	r16
     a64:	ff 90       	pop	r15
     a66:	ef 90       	pop	r14
     a68:	df 90       	pop	r13
     a6a:	cf 90       	pop	r12
     a6c:	bf 90       	pop	r11
     a6e:	af 90       	pop	r10
     a70:	9f 90       	pop	r9
     a72:	8f 90       	pop	r8
     a74:	7f 90       	pop	r7
     a76:	6f 90       	pop	r6
     a78:	5f 90       	pop	r5
     a7a:	3f 90       	pop	r3
     a7c:	2f 90       	pop	r2
     a7e:	08 95       	ret

00000a80 <mp_wypOkragPomoc>:
     a80:	2f 92       	push	r2
     a82:	3f 92       	push	r3
     a84:	4f 92       	push	r4
     a86:	5f 92       	push	r5
     a88:	6f 92       	push	r6
     a8a:	7f 92       	push	r7
     a8c:	8f 92       	push	r8
     a8e:	9f 92       	push	r9
     a90:	af 92       	push	r10
     a92:	bf 92       	push	r11
     a94:	cf 92       	push	r12
     a96:	df 92       	push	r13
     a98:	ef 92       	push	r14
     a9a:	ff 92       	push	r15
     a9c:	0f 93       	push	r16
     a9e:	1f 93       	push	r17
     aa0:	cf 93       	push	r28
     aa2:	df 93       	push	r29
     aa4:	00 d0       	rcall	.+0      	; 0xaa6 <mp_wypOkragPomoc+0x26>
     aa6:	00 d0       	rcall	.+0      	; 0xaa8 <mp_wypOkragPomoc+0x28>
     aa8:	1f 92       	push	r1
     aaa:	cd b7       	in	r28, 0x3d	; 61
     aac:	de b7       	in	r29, 0x3e	; 62
     aae:	6c 01       	movw	r12, r24
     ab0:	7d 83       	std	Y+5, r23	; 0x05
     ab2:	6c 83       	std	Y+4, r22	; 0x04
     ab4:	5a 01       	movw	r10, r20
     ab6:	28 01       	movw	r4, r16
     ab8:	e9 82       	std	Y+1, r14	; 0x01
     aba:	ee 24       	eor	r14, r14
     abc:	e3 94       	inc	r14
     abe:	f1 2c       	mov	r15, r1
     ac0:	e4 1a       	sub	r14, r20
     ac2:	f5 0a       	sbc	r15, r21
     ac4:	88 24       	eor	r8, r8
     ac6:	99 24       	eor	r9, r9
     ac8:	84 1a       	sub	r8, r20
     aca:	95 0a       	sbc	r9, r21
     acc:	88 0c       	add	r8, r8
     ace:	99 1c       	adc	r9, r9
     ad0:	86 01       	movw	r16, r12
     ad2:	00 95       	com	r16
     ad4:	10 95       	com	r17
     ad6:	04 0f       	add	r16, r20
     ad8:	15 1f       	adc	r17, r21
     ada:	16 01       	movw	r2, r12
     adc:	22 0c       	add	r2, r2
     ade:	33 1c       	adc	r3, r3
     ae0:	24 0c       	add	r2, r4
     ae2:	35 1c       	adc	r3, r5
     ae4:	66 24       	eor	r6, r6
     ae6:	63 94       	inc	r6
     ae8:	71 2c       	mov	r7, r1
     aea:	82 2f       	mov	r24, r18
     aec:	81 70       	andi	r24, 0x01	; 1
     aee:	8a 83       	std	Y+2, r24	; 0x02
     af0:	22 70       	andi	r18, 0x02	; 2
     af2:	2b 83       	std	Y+3, r18	; 0x03
     af4:	55 c0       	rjmp	.+170    	; 0xba0 <mp_wypOkragPomoc+0x120>
     af6:	f7 fc       	sbrc	r15, 7
     af8:	0a c0       	rjmp	.+20     	; 0xb0e <mp_wypOkragPomoc+0x8e>
     afa:	ec 81       	ldd	r30, Y+4	; 0x04
     afc:	fd 81       	ldd	r31, Y+5	; 0x05
     afe:	31 97       	sbiw	r30, 0x01	; 1
     b00:	fd 83       	std	Y+5, r31	; 0x05
     b02:	ec 83       	std	Y+4, r30	; 0x04
     b04:	f2 e0       	ldi	r31, 0x02	; 2
     b06:	8f 0e       	add	r8, r31
     b08:	91 1c       	adc	r9, r1
     b0a:	e8 0c       	add	r14, r8
     b0c:	f9 1c       	adc	r15, r9
     b0e:	8f ef       	ldi	r24, 0xFF	; 255
     b10:	c8 1a       	sub	r12, r24
     b12:	d8 0a       	sbc	r13, r24
     b14:	92 e0       	ldi	r25, 0x02	; 2
     b16:	69 0e       	add	r6, r25
     b18:	71 1c       	adc	r7, r1
     b1a:	e6 0c       	add	r14, r6
     b1c:	f7 1c       	adc	r15, r7
     b1e:	ea 81       	ldd	r30, Y+2	; 0x02
     b20:	ee 23       	and	r30, r30
     b22:	d1 f0       	breq	.+52     	; 0xb58 <mp_wypOkragPomoc+0xd8>
     b24:	4c 81       	ldd	r20, Y+4	; 0x04
     b26:	5d 81       	ldd	r21, Y+5	; 0x05
     b28:	44 0f       	add	r20, r20
     b2a:	55 1f       	adc	r21, r21
     b2c:	4f 5f       	subi	r20, 0xFF	; 255
     b2e:	5f 4f       	sbci	r21, 0xFF	; 255
     b30:	44 0d       	add	r20, r4
     b32:	55 1d       	adc	r21, r5
     b34:	b5 01       	movw	r22, r10
     b36:	8c 81       	ldd	r24, Y+4	; 0x04
     b38:	9d 81       	ldd	r25, Y+5	; 0x05
     b3a:	68 1b       	sub	r22, r24
     b3c:	79 0b       	sbc	r23, r25
     b3e:	29 81       	ldd	r18, Y+1	; 0x01
     b40:	c6 01       	movw	r24, r12
     b42:	0e 94 74 04 	call	0x8e8	; 0x8e8 <mp_narLiniePoz>
     b46:	a1 01       	movw	r20, r2
     b48:	46 0d       	add	r20, r6
     b4a:	57 1d       	adc	r21, r7
     b4c:	29 81       	ldd	r18, Y+1	; 0x01
     b4e:	b8 01       	movw	r22, r16
     b50:	8c 81       	ldd	r24, Y+4	; 0x04
     b52:	9d 81       	ldd	r25, Y+5	; 0x05
     b54:	0e 94 74 04 	call	0x8e8	; 0x8e8 <mp_narLiniePoz>
     b58:	9b 81       	ldd	r25, Y+3	; 0x03
     b5a:	99 23       	and	r25, r25
     b5c:	f9 f0       	breq	.+62     	; 0xb9c <mp_wypOkragPomoc+0x11c>
     b5e:	4c 81       	ldd	r20, Y+4	; 0x04
     b60:	5d 81       	ldd	r21, Y+5	; 0x05
     b62:	44 0f       	add	r20, r20
     b64:	55 1f       	adc	r21, r21
     b66:	4f 5f       	subi	r20, 0xFF	; 255
     b68:	5f 4f       	sbci	r21, 0xFF	; 255
     b6a:	44 0d       	add	r20, r4
     b6c:	55 1d       	adc	r21, r5
     b6e:	b5 01       	movw	r22, r10
     b70:	ec 81       	ldd	r30, Y+4	; 0x04
     b72:	fd 81       	ldd	r31, Y+5	; 0x05
     b74:	6e 1b       	sub	r22, r30
     b76:	7f 0b       	sbc	r23, r31
     b78:	29 81       	ldd	r18, Y+1	; 0x01
     b7a:	c8 01       	movw	r24, r16
     b7c:	8a 19       	sub	r24, r10
     b7e:	9b 09       	sbc	r25, r11
     b80:	0e 94 74 04 	call	0x8e8	; 0x8e8 <mp_narLiniePoz>
     b84:	a1 01       	movw	r20, r2
     b86:	46 0d       	add	r20, r6
     b88:	57 1d       	adc	r21, r7
     b8a:	29 81       	ldd	r18, Y+1	; 0x01
     b8c:	b8 01       	movw	r22, r16
     b8e:	8c 81       	ldd	r24, Y+4	; 0x04
     b90:	9d 81       	ldd	r25, Y+5	; 0x05
     b92:	91 95       	neg	r25
     b94:	81 95       	neg	r24
     b96:	91 09       	sbc	r25, r1
     b98:	0e 94 74 04 	call	0x8e8	; 0x8e8 <mp_narLiniePoz>
     b9c:	01 50       	subi	r16, 0x01	; 1
     b9e:	11 09       	sbc	r17, r1
     ba0:	8c 81       	ldd	r24, Y+4	; 0x04
     ba2:	9d 81       	ldd	r25, Y+5	; 0x05
     ba4:	c8 16       	cp	r12, r24
     ba6:	d9 06       	cpc	r13, r25
     ba8:	0c f4       	brge	.+2      	; 0xbac <mp_wypOkragPomoc+0x12c>
     baa:	a5 cf       	rjmp	.-182    	; 0xaf6 <mp_wypOkragPomoc+0x76>
     bac:	0f 90       	pop	r0
     bae:	0f 90       	pop	r0
     bb0:	0f 90       	pop	r0
     bb2:	0f 90       	pop	r0
     bb4:	0f 90       	pop	r0
     bb6:	df 91       	pop	r29
     bb8:	cf 91       	pop	r28
     bba:	1f 91       	pop	r17
     bbc:	0f 91       	pop	r16
     bbe:	ff 90       	pop	r15
     bc0:	ef 90       	pop	r14
     bc2:	df 90       	pop	r13
     bc4:	cf 90       	pop	r12
     bc6:	bf 90       	pop	r11
     bc8:	af 90       	pop	r10
     bca:	9f 90       	pop	r9
     bcc:	8f 90       	pop	r8
     bce:	7f 90       	pop	r7
     bd0:	6f 90       	pop	r6
     bd2:	5f 90       	pop	r5
     bd4:	4f 90       	pop	r4
     bd6:	3f 90       	pop	r3
     bd8:	2f 90       	pop	r2
     bda:	08 95       	ret

00000bdc <mp_wypOkrag>:
     bdc:	af 92       	push	r10
     bde:	bf 92       	push	r11
     be0:	cf 92       	push	r12
     be2:	df 92       	push	r13
     be4:	ef 92       	push	r14
     be6:	0f 93       	push	r16
     be8:	1f 93       	push	r17
     bea:	cf 93       	push	r28
     bec:	df 93       	push	r29
     bee:	6c 01       	movw	r12, r24
     bf0:	5b 01       	movw	r10, r22
     bf2:	e2 2e       	mov	r14, r18
     bf4:	c4 2f       	mov	r28, r20
     bf6:	d0 e0       	ldi	r29, 0x00	; 0
     bf8:	ae 01       	movw	r20, r28
     bfa:	44 0f       	add	r20, r20
     bfc:	55 1f       	adc	r21, r21
     bfe:	4f 5f       	subi	r20, 0xFF	; 255
     c00:	5f 4f       	sbci	r21, 0xFF	; 255
     c02:	b5 01       	movw	r22, r10
     c04:	6c 1b       	sub	r22, r28
     c06:	7d 0b       	sbc	r23, r29
     c08:	0e 94 74 04 	call	0x8e8	; 0x8e8 <mp_narLiniePoz>
     c0c:	00 e0       	ldi	r16, 0x00	; 0
     c0e:	10 e0       	ldi	r17, 0x00	; 0
     c10:	23 e0       	ldi	r18, 0x03	; 3
     c12:	ae 01       	movw	r20, r28
     c14:	b5 01       	movw	r22, r10
     c16:	c6 01       	movw	r24, r12
     c18:	0e 94 40 05 	call	0xa80	; 0xa80 <mp_wypOkragPomoc>
     c1c:	df 91       	pop	r29
     c1e:	cf 91       	pop	r28
     c20:	1f 91       	pop	r17
     c22:	0f 91       	pop	r16
     c24:	ef 90       	pop	r14
     c26:	df 90       	pop	r13
     c28:	cf 90       	pop	r12
     c2a:	bf 90       	pop	r11
     c2c:	af 90       	pop	r10
     c2e:	08 95       	ret

00000c30 <mp_narProst>:
     c30:	af 92       	push	r10
     c32:	bf 92       	push	r11
     c34:	cf 92       	push	r12
     c36:	df 92       	push	r13
     c38:	ef 92       	push	r14
     c3a:	ff 92       	push	r15
     c3c:	0f 93       	push	r16
     c3e:	cf 93       	push	r28
     c40:	df 93       	push	r29
     c42:	7c 01       	movw	r14, r24
     c44:	eb 01       	movw	r28, r22
     c46:	6a 01       	movw	r12, r20
     c48:	59 01       	movw	r10, r18
     c4a:	20 2f       	mov	r18, r16
     c4c:	0e 94 7f 04 	call	0x8fe	; 0x8fe <mp_narLiniePion>
     c50:	be 01       	movw	r22, r28
     c52:	6a 0d       	add	r22, r10
     c54:	7b 1d       	adc	r23, r11
     c56:	61 50       	subi	r22, 0x01	; 1
     c58:	71 09       	sbc	r23, r1
     c5a:	20 2f       	mov	r18, r16
     c5c:	a6 01       	movw	r20, r12
     c5e:	c7 01       	movw	r24, r14
     c60:	0e 94 7f 04 	call	0x8fe	; 0x8fe <mp_narLiniePion>
     c64:	20 2f       	mov	r18, r16
     c66:	a5 01       	movw	r20, r10
     c68:	be 01       	movw	r22, r28
     c6a:	c7 01       	movw	r24, r14
     c6c:	0e 94 74 04 	call	0x8e8	; 0x8e8 <mp_narLiniePoz>
     c70:	c7 01       	movw	r24, r14
     c72:	8c 0d       	add	r24, r12
     c74:	9d 1d       	adc	r25, r13
     c76:	20 2f       	mov	r18, r16
     c78:	a5 01       	movw	r20, r10
     c7a:	be 01       	movw	r22, r28
     c7c:	01 97       	sbiw	r24, 0x01	; 1
     c7e:	df 91       	pop	r29
     c80:	cf 91       	pop	r28
     c82:	0f 91       	pop	r16
     c84:	ff 90       	pop	r15
     c86:	ef 90       	pop	r14
     c88:	df 90       	pop	r13
     c8a:	cf 90       	pop	r12
     c8c:	bf 90       	pop	r11
     c8e:	af 90       	pop	r10
     c90:	0c 94 74 04 	jmp	0x8e8	; 0x8e8 <mp_narLiniePoz>

00000c94 <mp_wypProst>:
     c94:	af 92       	push	r10
     c96:	bf 92       	push	r11
     c98:	cf 92       	push	r12
     c9a:	df 92       	push	r13
     c9c:	ef 92       	push	r14
     c9e:	ff 92       	push	r15
     ca0:	0f 93       	push	r16
     ca2:	cf 93       	push	r28
     ca4:	df 93       	push	r29
     ca6:	6b 01       	movw	r12, r22
     ca8:	7a 01       	movw	r14, r20
     caa:	59 01       	movw	r10, r18
     cac:	ec 01       	movw	r28, r24
     cae:	e8 0e       	add	r14, r24
     cb0:	f9 1e       	adc	r15, r25
     cb2:	07 c0       	rjmp	.+14     	; 0xcc2 <mp_wypProst+0x2e>
     cb4:	20 2f       	mov	r18, r16
     cb6:	a5 01       	movw	r20, r10
     cb8:	b6 01       	movw	r22, r12
     cba:	ce 01       	movw	r24, r28
     cbc:	0e 94 74 04 	call	0x8e8	; 0x8e8 <mp_narLiniePoz>
     cc0:	21 96       	adiw	r28, 0x01	; 1
     cc2:	ce 15       	cp	r28, r14
     cc4:	df 05       	cpc	r29, r15
     cc6:	b4 f3       	brlt	.-20     	; 0xcb4 <mp_wypProst+0x20>
     cc8:	df 91       	pop	r29
     cca:	cf 91       	pop	r28
     ccc:	0f 91       	pop	r16
     cce:	ff 90       	pop	r15
     cd0:	ef 90       	pop	r14
     cd2:	df 90       	pop	r13
     cd4:	cf 90       	pop	r12
     cd6:	bf 90       	pop	r11
     cd8:	af 90       	pop	r10
     cda:	08 95       	ret

00000cdc <mp_narZnak>:
     cdc:	2f 92       	push	r2
     cde:	3f 92       	push	r3
     ce0:	4f 92       	push	r4
     ce2:	5f 92       	push	r5
     ce4:	6f 92       	push	r6
     ce6:	7f 92       	push	r7
     ce8:	8f 92       	push	r8
     cea:	9f 92       	push	r9
     cec:	af 92       	push	r10
     cee:	bf 92       	push	r11
     cf0:	cf 92       	push	r12
     cf2:	df 92       	push	r13
     cf4:	ef 92       	push	r14
     cf6:	ff 92       	push	r15
     cf8:	0f 93       	push	r16
     cfa:	1f 93       	push	r17
     cfc:	cf 93       	push	r28
     cfe:	df 93       	push	r29
     d00:	cd b7       	in	r28, 0x3d	; 61
     d02:	de b7       	in	r29, 0x3e	; 62
     d04:	27 97       	sbiw	r28, 0x07	; 7
     d06:	0f b6       	in	r0, 0x3f	; 63
     d08:	f8 94       	cli
     d0a:	de bf       	out	0x3e, r29	; 62
     d0c:	0f be       	out	0x3f, r0	; 63
     d0e:	cd bf       	out	0x3d, r28	; 61
     d10:	5b 01       	movw	r10, r22
     d12:	52 2e       	mov	r5, r18
     d14:	40 2e       	mov	r4, r16
     d16:	1e 2d       	mov	r17, r14
     d18:	80 38       	cpi	r24, 0x80	; 128
     d1a:	91 05       	cpc	r25, r1
     d1c:	0c f0       	brlt	.+2      	; 0xd20 <mp_narZnak+0x44>
     d1e:	71 c0       	rjmp	.+226    	; 0xe02 <mp_narZnak+0x126>
     d20:	60 34       	cpi	r22, 0x40	; 64
     d22:	71 05       	cpc	r23, r1
     d24:	0c f0       	brlt	.+2      	; 0xd28 <mp_narZnak+0x4c>
     d26:	6d c0       	rjmp	.+218    	; 0xe02 <mp_narZnak+0x126>
     d28:	9c 01       	movw	r18, r24
     d2a:	56 e0       	ldi	r21, 0x06	; 6
     d2c:	e5 9e       	mul	r14, r21
     d2e:	20 0d       	add	r18, r0
     d30:	31 1d       	adc	r19, r1
     d32:	11 24       	eor	r1, r1
     d34:	12 16       	cp	r1, r18
     d36:	13 06       	cpc	r1, r19
     d38:	0c f0       	brlt	.+2      	; 0xd3c <mp_narZnak+0x60>
     d3a:	63 c0       	rjmp	.+198    	; 0xe02 <mp_narZnak+0x126>
     d3c:	ee 2d       	mov	r30, r14
     d3e:	f0 e0       	ldi	r31, 0x00	; 0
     d40:	fb 83       	std	Y+3, r31	; 0x03
     d42:	ea 83       	std	Y+2, r30	; 0x02
     d44:	9b 01       	movw	r18, r22
     d46:	f8 e0       	ldi	r31, 0x08	; 8
     d48:	ef 9e       	mul	r14, r31
     d4a:	20 0d       	add	r18, r0
     d4c:	31 1d       	adc	r19, r1
     d4e:	11 24       	eor	r1, r1
     d50:	12 16       	cp	r1, r18
     d52:	13 06       	cpc	r1, r19
     d54:	0c f0       	brlt	.+2      	; 0xd58 <mp_narZnak+0x7c>
     d56:	55 c0       	rjmp	.+170    	; 0xe02 <mp_narZnak+0x126>
     d58:	1c 01       	movw	r2, r24
     d5a:	9f 83       	std	Y+7, r25	; 0x07
     d5c:	8e 83       	std	Y+6, r24	; 0x06
     d5e:	f1 2c       	mov	r15, r1
     d60:	74 e5       	ldi	r23, 0x54	; 84
     d62:	c7 2e       	mov	r12, r23
     d64:	70 e0       	ldi	r23, 0x00	; 0
     d66:	d7 2e       	mov	r13, r23
     d68:	c8 1a       	sub	r12, r24
     d6a:	d9 0a       	sbc	r13, r25
     d6c:	25 e0       	ldi	r18, 0x05	; 5
     d6e:	42 9f       	mul	r20, r18
     d70:	c0 0c       	add	r12, r0
     d72:	d1 1c       	adc	r13, r1
     d74:	11 24       	eor	r1, r1
     d76:	35 e0       	ldi	r19, 0x05	; 5
     d78:	f3 16       	cp	r15, r19
     d7a:	31 f0       	breq	.+12     	; 0xd88 <mp_narZnak+0xac>
     d7c:	ee 81       	ldd	r30, Y+6	; 0x06
     d7e:	ff 81       	ldd	r31, Y+7	; 0x07
     d80:	ec 0d       	add	r30, r12
     d82:	fd 1d       	adc	r31, r13
     d84:	e4 90       	lpm	r14, Z
     d86:	01 c0       	rjmp	.+2      	; 0xd8a <mp_narZnak+0xae>
     d88:	e1 2c       	mov	r14, r1
     d8a:	2c 82       	std	Y+4, r2	; 0x04
     d8c:	3d 82       	std	Y+5, r3	; 0x05
     d8e:	45 01       	movw	r8, r10
     d90:	35 01       	movw	r6, r10
     d92:	58 e0       	ldi	r21, 0x08	; 8
     d94:	59 83       	std	Y+1, r21	; 0x01
     d96:	e0 fe       	sbrs	r14, 0
     d98:	06 c0       	rjmp	.+12     	; 0xda6 <mp_narZnak+0xca>
     d9a:	11 30       	cpi	r17, 0x01	; 1
     d9c:	11 f4       	brne	.+4      	; 0xda2 <mp_narZnak+0xc6>
     d9e:	45 2d       	mov	r20, r5
     da0:	07 c0       	rjmp	.+14     	; 0xdb0 <mp_narZnak+0xd4>
     da2:	05 2d       	mov	r16, r5
     da4:	0c c0       	rjmp	.+24     	; 0xdbe <mp_narZnak+0xe2>
     da6:	45 14       	cp	r4, r5
     da8:	99 f0       	breq	.+38     	; 0xdd0 <mp_narZnak+0xf4>
     daa:	11 30       	cpi	r17, 0x01	; 1
     dac:	39 f4       	brne	.+14     	; 0xdbc <mp_narZnak+0xe0>
     dae:	44 2d       	mov	r20, r4
     db0:	b3 01       	movw	r22, r6
     db2:	8e 81       	ldd	r24, Y+6	; 0x06
     db4:	9f 81       	ldd	r25, Y+7	; 0x07
     db6:	0e 94 43 0c 	call	0x1886	; 0x1886 <mp_ssd1306_drawPixel>
     dba:	0a c0       	rjmp	.+20     	; 0xdd0 <mp_narZnak+0xf4>
     dbc:	04 2d       	mov	r16, r4
     dbe:	21 2f       	mov	r18, r17
     dc0:	30 e0       	ldi	r19, 0x00	; 0
     dc2:	41 2f       	mov	r20, r17
     dc4:	50 e0       	ldi	r21, 0x00	; 0
     dc6:	b4 01       	movw	r22, r8
     dc8:	8c 81       	ldd	r24, Y+4	; 0x04
     dca:	9d 81       	ldd	r25, Y+5	; 0x05
     dcc:	0e 94 4a 06 	call	0xc94	; 0xc94 <mp_wypProst>
     dd0:	e6 94       	lsr	r14
     dd2:	89 81       	ldd	r24, Y+1	; 0x01
     dd4:	81 50       	subi	r24, 0x01	; 1
     dd6:	89 83       	std	Y+1, r24	; 0x01
     dd8:	9f ef       	ldi	r25, 0xFF	; 255
     dda:	69 1a       	sub	r6, r25
     ddc:	79 0a       	sbc	r7, r25
     dde:	ea 81       	ldd	r30, Y+2	; 0x02
     de0:	fb 81       	ldd	r31, Y+3	; 0x03
     de2:	8e 0e       	add	r8, r30
     de4:	9f 1e       	adc	r9, r31
     de6:	81 11       	cpse	r24, r1
     de8:	d6 cf       	rjmp	.-84     	; 0xd96 <mp_narZnak+0xba>
     dea:	f3 94       	inc	r15
     dec:	2e 81       	ldd	r18, Y+6	; 0x06
     dee:	3f 81       	ldd	r19, Y+7	; 0x07
     df0:	2f 5f       	subi	r18, 0xFF	; 255
     df2:	3f 4f       	sbci	r19, 0xFF	; 255
     df4:	3f 83       	std	Y+7, r19	; 0x07
     df6:	2e 83       	std	Y+6, r18	; 0x06
     df8:	2e 0e       	add	r2, r30
     dfa:	3f 1e       	adc	r3, r31
     dfc:	36 e0       	ldi	r19, 0x06	; 6
     dfe:	f3 12       	cpse	r15, r19
     e00:	ba cf       	rjmp	.-140    	; 0xd76 <mp_narZnak+0x9a>
     e02:	27 96       	adiw	r28, 0x07	; 7
     e04:	0f b6       	in	r0, 0x3f	; 63
     e06:	f8 94       	cli
     e08:	de bf       	out	0x3e, r29	; 62
     e0a:	0f be       	out	0x3f, r0	; 63
     e0c:	cd bf       	out	0x3d, r28	; 61
     e0e:	df 91       	pop	r29
     e10:	cf 91       	pop	r28
     e12:	1f 91       	pop	r17
     e14:	0f 91       	pop	r16
     e16:	ff 90       	pop	r15
     e18:	ef 90       	pop	r14
     e1a:	df 90       	pop	r13
     e1c:	cf 90       	pop	r12
     e1e:	bf 90       	pop	r11
     e20:	af 90       	pop	r10
     e22:	9f 90       	pop	r9
     e24:	8f 90       	pop	r8
     e26:	7f 90       	pop	r7
     e28:	6f 90       	pop	r6
     e2a:	5f 90       	pop	r5
     e2c:	4f 90       	pop	r4
     e2e:	3f 90       	pop	r3
     e30:	2f 90       	pop	r2
     e32:	08 95       	ret

00000e34 <mp_wysText_P>:
     e34:	bf 92       	push	r11
     e36:	cf 92       	push	r12
     e38:	df 92       	push	r13
     e3a:	ef 92       	push	r14
     e3c:	ff 92       	push	r15
     e3e:	0f 93       	push	r16
     e40:	1f 93       	push	r17
     e42:	cf 93       	push	r28
     e44:	df 93       	push	r29
     e46:	ea 01       	movw	r28, r20
     e48:	12 2f       	mov	r17, r18
     e4a:	f0 2e       	mov	r15, r16
     e4c:	be 2c       	mov	r11, r14
     e4e:	90 93 79 04 	sts	0x0479, r25
     e52:	80 93 78 04 	sts	0x0478, r24
     e56:	70 93 77 04 	sts	0x0477, r23
     e5a:	60 93 76 04 	sts	0x0476, r22
     e5e:	86 e0       	ldi	r24, 0x06	; 6
     e60:	28 9f       	mul	r18, r24
     e62:	60 01       	movw	r12, r0
     e64:	11 24       	eor	r1, r1
     e66:	1a c0       	rjmp	.+52     	; 0xe9c <mp_wysText_P+0x68>
     e68:	fe 01       	movw	r30, r28
     e6a:	21 96       	adiw	r28, 0x01	; 1
     e6c:	44 91       	lpm	r20, Z
     e6e:	60 91 76 04 	lds	r22, 0x0476
     e72:	70 91 77 04 	lds	r23, 0x0477
     e76:	e1 2e       	mov	r14, r17
     e78:	0b 2d       	mov	r16, r11
     e7a:	2f 2d       	mov	r18, r15
     e7c:	80 91 78 04 	lds	r24, 0x0478
     e80:	90 91 79 04 	lds	r25, 0x0479
     e84:	0e 94 6e 06 	call	0xcdc	; 0xcdc <mp_narZnak>
     e88:	80 91 78 04 	lds	r24, 0x0478
     e8c:	90 91 79 04 	lds	r25, 0x0479
     e90:	8c 0d       	add	r24, r12
     e92:	9d 1d       	adc	r25, r13
     e94:	90 93 79 04 	sts	0x0479, r25
     e98:	80 93 78 04 	sts	0x0478, r24
     e9c:	88 81       	ld	r24, Y
     e9e:	81 11       	cpse	r24, r1
     ea0:	e3 cf       	rjmp	.-58     	; 0xe68 <mp_wysText_P+0x34>
     ea2:	df 91       	pop	r29
     ea4:	cf 91       	pop	r28
     ea6:	1f 91       	pop	r17
     ea8:	0f 91       	pop	r16
     eaa:	ff 90       	pop	r15
     eac:	ef 90       	pop	r14
     eae:	df 90       	pop	r13
     eb0:	cf 90       	pop	r12
     eb2:	bf 90       	pop	r11
     eb4:	08 95       	ret

00000eb6 <mp_wysText>:
     eb6:	bf 92       	push	r11
     eb8:	cf 92       	push	r12
     eba:	df 92       	push	r13
     ebc:	ef 92       	push	r14
     ebe:	ff 92       	push	r15
     ec0:	0f 93       	push	r16
     ec2:	1f 93       	push	r17
     ec4:	cf 93       	push	r28
     ec6:	df 93       	push	r29
     ec8:	12 2f       	mov	r17, r18
     eca:	f0 2e       	mov	r15, r16
     ecc:	be 2c       	mov	r11, r14
     ece:	90 93 79 04 	sts	0x0479, r25
     ed2:	80 93 78 04 	sts	0x0478, r24
     ed6:	70 93 77 04 	sts	0x0477, r23
     eda:	60 93 76 04 	sts	0x0476, r22
     ede:	86 e0       	ldi	r24, 0x06	; 6
     ee0:	28 9f       	mul	r18, r24
     ee2:	60 01       	movw	r12, r0
     ee4:	11 24       	eor	r1, r1
     ee6:	ea 01       	movw	r28, r20
     ee8:	17 c0       	rjmp	.+46     	; 0xf18 <mp_wysText+0x62>
     eea:	60 91 76 04 	lds	r22, 0x0476
     eee:	70 91 77 04 	lds	r23, 0x0477
     ef2:	e1 2e       	mov	r14, r17
     ef4:	0b 2d       	mov	r16, r11
     ef6:	2f 2d       	mov	r18, r15
     ef8:	80 91 78 04 	lds	r24, 0x0478
     efc:	90 91 79 04 	lds	r25, 0x0479
     f00:	0e 94 6e 06 	call	0xcdc	; 0xcdc <mp_narZnak>
     f04:	80 91 78 04 	lds	r24, 0x0478
     f08:	90 91 79 04 	lds	r25, 0x0479
     f0c:	8c 0d       	add	r24, r12
     f0e:	9d 1d       	adc	r25, r13
     f10:	90 93 79 04 	sts	0x0479, r25
     f14:	80 93 78 04 	sts	0x0478, r24
     f18:	49 91       	ld	r20, Y+
     f1a:	41 11       	cpse	r20, r1
     f1c:	e6 cf       	rjmp	.-52     	; 0xeea <mp_wysText+0x34>
     f1e:	df 91       	pop	r29
     f20:	cf 91       	pop	r28
     f22:	1f 91       	pop	r17
     f24:	0f 91       	pop	r16
     f26:	ff 90       	pop	r15
     f28:	ef 90       	pop	r14
     f2a:	df 90       	pop	r13
     f2c:	cf 90       	pop	r12
     f2e:	bf 90       	pop	r11
     f30:	08 95       	ret

00000f32 <mp_wysLiczbe>:
     f32:	af 92       	push	r10
     f34:	bf 92       	push	r11
     f36:	cf 92       	push	r12
     f38:	df 92       	push	r13
     f3a:	ef 92       	push	r14
     f3c:	0f 93       	push	r16
     f3e:	cf 93       	push	r28
     f40:	df 93       	push	r29
     f42:	cd b7       	in	r28, 0x3d	; 61
     f44:	de b7       	in	r29, 0x3e	; 62
     f46:	61 97       	sbiw	r28, 0x11	; 17
     f48:	0f b6       	in	r0, 0x3f	; 63
     f4a:	f8 94       	cli
     f4c:	de bf       	out	0x3e, r29	; 62
     f4e:	0f be       	out	0x3f, r0	; 63
     f50:	cd bf       	out	0x3d, r28	; 61
     f52:	6c 01       	movw	r12, r24
     f54:	5b 01       	movw	r10, r22
     f56:	ca 01       	movw	r24, r20
     f58:	4a e0       	ldi	r20, 0x0A	; 10
     f5a:	50 e0       	ldi	r21, 0x00	; 0
     f5c:	be 01       	movw	r22, r28
     f5e:	6f 5f       	subi	r22, 0xFF	; 255
     f60:	7f 4f       	sbci	r23, 0xFF	; 255
     f62:	29 8b       	std	Y+17, r18	; 0x11
     f64:	0e 94 73 10 	call	0x20e6	; 0x20e6 <itoa>
     f68:	29 89       	ldd	r18, Y+17	; 0x11
     f6a:	ac 01       	movw	r20, r24
     f6c:	b5 01       	movw	r22, r10
     f6e:	c6 01       	movw	r24, r12
     f70:	0e 94 5b 07 	call	0xeb6	; 0xeb6 <mp_wysText>
     f74:	61 96       	adiw	r28, 0x11	; 17
     f76:	0f b6       	in	r0, 0x3f	; 63
     f78:	f8 94       	cli
     f7a:	de bf       	out	0x3e, r29	; 62
     f7c:	0f be       	out	0x3f, r0	; 63
     f7e:	cd bf       	out	0x3d, r28	; 61
     f80:	df 91       	pop	r29
     f82:	cf 91       	pop	r28
     f84:	0f 91       	pop	r16
     f86:	ef 90       	pop	r14
     f88:	df 90       	pop	r13
     f8a:	cf 90       	pop	r12
     f8c:	bf 90       	pop	r11
     f8e:	af 90       	pop	r10
     f90:	08 95       	ret

00000f92 <mp_narOkragPomoc>:
     f92:	3f 92       	push	r3
     f94:	4f 92       	push	r4
     f96:	5f 92       	push	r5
     f98:	6f 92       	push	r6
     f9a:	7f 92       	push	r7
     f9c:	8f 92       	push	r8
     f9e:	9f 92       	push	r9
     fa0:	af 92       	push	r10
     fa2:	bf 92       	push	r11
     fa4:	cf 92       	push	r12
     fa6:	df 92       	push	r13
     fa8:	ef 92       	push	r14
     faa:	ff 92       	push	r15
     fac:	0f 93       	push	r16
     fae:	1f 93       	push	r17
     fb0:	cf 93       	push	r28
     fb2:	df 93       	push	r29
     fb4:	6c 01       	movw	r12, r24
     fb6:	5b 01       	movw	r10, r22
     fb8:	88 24       	eor	r8, r8
     fba:	83 94       	inc	r8
     fbc:	91 2c       	mov	r9, r1
     fbe:	84 1a       	sub	r8, r20
     fc0:	95 0a       	sbc	r9, r21
     fc2:	66 24       	eor	r6, r6
     fc4:	77 24       	eor	r7, r7
     fc6:	64 1a       	sub	r6, r20
     fc8:	75 0a       	sbc	r7, r21
     fca:	66 0c       	add	r6, r6
     fcc:	77 1c       	adc	r7, r7
     fce:	7a 01       	movw	r14, r20
     fd0:	c0 e0       	ldi	r28, 0x00	; 0
     fd2:	d0 e0       	ldi	r29, 0x00	; 0
     fd4:	b4 e0       	ldi	r27, 0x04	; 4
     fd6:	3b 2e       	mov	r3, r27
     fd8:	32 22       	and	r3, r18
     fda:	12 2f       	mov	r17, r18
     fdc:	12 70       	andi	r17, 0x02	; 2
     fde:	88 e0       	ldi	r24, 0x08	; 8
     fe0:	58 2e       	mov	r5, r24
     fe2:	52 22       	and	r5, r18
     fe4:	44 24       	eor	r4, r4
     fe6:	43 94       	inc	r4
     fe8:	42 22       	and	r4, r18
     fea:	61 c0       	rjmp	.+194    	; 0x10ae <mp_narOkragPomoc+0x11c>
     fec:	97 fc       	sbrc	r9, 7
     fee:	08 c0       	rjmp	.+16     	; 0x1000 <mp_narOkragPomoc+0x6e>
     ff0:	81 e0       	ldi	r24, 0x01	; 1
     ff2:	e8 1a       	sub	r14, r24
     ff4:	f1 08       	sbc	r15, r1
     ff6:	82 e0       	ldi	r24, 0x02	; 2
     ff8:	68 0e       	add	r6, r24
     ffa:	71 1c       	adc	r7, r1
     ffc:	86 0c       	add	r8, r6
     ffe:	97 1c       	adc	r9, r7
    1000:	21 96       	adiw	r28, 0x01	; 1
    1002:	ce 01       	movw	r24, r28
    1004:	88 0f       	add	r24, r24
    1006:	99 1f       	adc	r25, r25
    1008:	01 96       	adiw	r24, 0x01	; 1
    100a:	88 0e       	add	r8, r24
    100c:	99 1e       	adc	r9, r25
    100e:	33 20       	and	r3, r3
    1010:	91 f0       	breq	.+36     	; 0x1036 <mp_narOkragPomoc+0xa4>
    1012:	b5 01       	movw	r22, r10
    1014:	6e 0d       	add	r22, r14
    1016:	7f 1d       	adc	r23, r15
    1018:	40 2f       	mov	r20, r16
    101a:	ce 01       	movw	r24, r28
    101c:	8c 0d       	add	r24, r12
    101e:	9d 1d       	adc	r25, r13
    1020:	0e 94 43 0c 	call	0x1886	; 0x1886 <mp_ssd1306_drawPixel>
    1024:	be 01       	movw	r22, r28
    1026:	6a 0d       	add	r22, r10
    1028:	7b 1d       	adc	r23, r11
    102a:	40 2f       	mov	r20, r16
    102c:	c6 01       	movw	r24, r12
    102e:	8e 0d       	add	r24, r14
    1030:	9f 1d       	adc	r25, r15
    1032:	0e 94 43 0c 	call	0x1886	; 0x1886 <mp_ssd1306_drawPixel>
    1036:	11 23       	and	r17, r17
    1038:	91 f0       	breq	.+36     	; 0x105e <mp_narOkragPomoc+0xcc>
    103a:	b5 01       	movw	r22, r10
    103c:	6e 19       	sub	r22, r14
    103e:	7f 09       	sbc	r23, r15
    1040:	40 2f       	mov	r20, r16
    1042:	ce 01       	movw	r24, r28
    1044:	8c 0d       	add	r24, r12
    1046:	9d 1d       	adc	r25, r13
    1048:	0e 94 43 0c 	call	0x1886	; 0x1886 <mp_ssd1306_drawPixel>
    104c:	b5 01       	movw	r22, r10
    104e:	6c 1b       	sub	r22, r28
    1050:	7d 0b       	sbc	r23, r29
    1052:	40 2f       	mov	r20, r16
    1054:	c6 01       	movw	r24, r12
    1056:	8e 0d       	add	r24, r14
    1058:	9f 1d       	adc	r25, r15
    105a:	0e 94 43 0c 	call	0x1886	; 0x1886 <mp_ssd1306_drawPixel>
    105e:	55 20       	and	r5, r5
    1060:	91 f0       	breq	.+36     	; 0x1086 <mp_narOkragPomoc+0xf4>
    1062:	be 01       	movw	r22, r28
    1064:	6a 0d       	add	r22, r10
    1066:	7b 1d       	adc	r23, r11
    1068:	40 2f       	mov	r20, r16
    106a:	c6 01       	movw	r24, r12
    106c:	8e 19       	sub	r24, r14
    106e:	9f 09       	sbc	r25, r15
    1070:	0e 94 43 0c 	call	0x1886	; 0x1886 <mp_ssd1306_drawPixel>
    1074:	b5 01       	movw	r22, r10
    1076:	6e 0d       	add	r22, r14
    1078:	7f 1d       	adc	r23, r15
    107a:	40 2f       	mov	r20, r16
    107c:	c6 01       	movw	r24, r12
    107e:	8c 1b       	sub	r24, r28
    1080:	9d 0b       	sbc	r25, r29
    1082:	0e 94 43 0c 	call	0x1886	; 0x1886 <mp_ssd1306_drawPixel>
    1086:	44 20       	and	r4, r4
    1088:	91 f0       	breq	.+36     	; 0x10ae <mp_narOkragPomoc+0x11c>
    108a:	b5 01       	movw	r22, r10
    108c:	6c 1b       	sub	r22, r28
    108e:	7d 0b       	sbc	r23, r29
    1090:	40 2f       	mov	r20, r16
    1092:	c6 01       	movw	r24, r12
    1094:	8e 19       	sub	r24, r14
    1096:	9f 09       	sbc	r25, r15
    1098:	0e 94 43 0c 	call	0x1886	; 0x1886 <mp_ssd1306_drawPixel>
    109c:	b5 01       	movw	r22, r10
    109e:	6e 19       	sub	r22, r14
    10a0:	7f 09       	sbc	r23, r15
    10a2:	40 2f       	mov	r20, r16
    10a4:	c6 01       	movw	r24, r12
    10a6:	8c 1b       	sub	r24, r28
    10a8:	9d 0b       	sbc	r25, r29
    10aa:	0e 94 43 0c 	call	0x1886	; 0x1886 <mp_ssd1306_drawPixel>
    10ae:	ce 15       	cp	r28, r14
    10b0:	df 05       	cpc	r29, r15
    10b2:	0c f4       	brge	.+2      	; 0x10b6 <mp_narOkragPomoc+0x124>
    10b4:	9b cf       	rjmp	.-202    	; 0xfec <mp_narOkragPomoc+0x5a>
    10b6:	df 91       	pop	r29
    10b8:	cf 91       	pop	r28
    10ba:	1f 91       	pop	r17
    10bc:	0f 91       	pop	r16
    10be:	ff 90       	pop	r15
    10c0:	ef 90       	pop	r14
    10c2:	df 90       	pop	r13
    10c4:	cf 90       	pop	r12
    10c6:	bf 90       	pop	r11
    10c8:	af 90       	pop	r10
    10ca:	9f 90       	pop	r9
    10cc:	8f 90       	pop	r8
    10ce:	7f 90       	pop	r7
    10d0:	6f 90       	pop	r6
    10d2:	5f 90       	pop	r5
    10d4:	4f 90       	pop	r4
    10d6:	3f 90       	pop	r3
    10d8:	08 95       	ret

000010da <mp_narProstOkrag>:
    10da:	2f 92       	push	r2
    10dc:	3f 92       	push	r3
    10de:	4f 92       	push	r4
    10e0:	5f 92       	push	r5
    10e2:	6f 92       	push	r6
    10e4:	7f 92       	push	r7
    10e6:	8f 92       	push	r8
    10e8:	9f 92       	push	r9
    10ea:	af 92       	push	r10
    10ec:	bf 92       	push	r11
    10ee:	cf 92       	push	r12
    10f0:	df 92       	push	r13
    10f2:	ef 92       	push	r14
    10f4:	0f 93       	push	r16
    10f6:	1f 93       	push	r17
    10f8:	cf 93       	push	r28
    10fa:	df 93       	push	r29
    10fc:	00 d0       	rcall	.+0      	; 0x10fe <mp_narProstOkrag+0x24>
    10fe:	00 d0       	rcall	.+0      	; 0x1100 <mp_narProstOkrag+0x26>
    1100:	00 d0       	rcall	.+0      	; 0x1102 <mp_narProstOkrag+0x28>
    1102:	cd b7       	in	r28, 0x3d	; 61
    1104:	de b7       	in	r29, 0x3e	; 62
    1106:	1c 01       	movw	r2, r24
    1108:	4b 01       	movw	r8, r22
    110a:	5c 83       	std	Y+4, r21	; 0x04
    110c:	4b 83       	std	Y+3, r20	; 0x03
    110e:	39 01       	movw	r6, r18
    1110:	1e 83       	std	Y+6, r17	; 0x06
    1112:	0d 83       	std	Y+5, r16	; 0x05
    1114:	58 01       	movw	r10, r16
    1116:	b1 94       	neg	r11
    1118:	a1 94       	neg	r10
    111a:	b1 08       	sbc	r11, r1
    111c:	aa 0c       	add	r10, r10
    111e:	bb 1c       	adc	r11, r11
    1120:	2a 01       	movw	r4, r20
    1122:	4a 0c       	add	r4, r10
    1124:	5b 1c       	adc	r5, r11
    1126:	68 01       	movw	r12, r16
    1128:	c2 0c       	add	r12, r2
    112a:	d3 1c       	adc	r13, r3
    112c:	2e 2d       	mov	r18, r14
    112e:	a2 01       	movw	r20, r4
    1130:	c6 01       	movw	r24, r12
    1132:	0e 94 7f 04 	call	0x8fe	; 0x8fe <mp_narLiniePion>
    1136:	c4 01       	movw	r24, r8
    1138:	86 0d       	add	r24, r6
    113a:	97 1d       	adc	r25, r7
    113c:	9a 83       	std	Y+2, r25	; 0x02
    113e:	89 83       	std	Y+1, r24	; 0x01
    1140:	bc 01       	movw	r22, r24
    1142:	61 50       	subi	r22, 0x01	; 1
    1144:	71 09       	sbc	r23, r1
    1146:	2e 2d       	mov	r18, r14
    1148:	a2 01       	movw	r20, r4
    114a:	c6 01       	movw	r24, r12
    114c:	0e 94 7f 04 	call	0x8fe	; 0x8fe <mp_narLiniePion>
    1150:	a6 0c       	add	r10, r6
    1152:	b7 1c       	adc	r11, r7
    1154:	ed 81       	ldd	r30, Y+5	; 0x05
    1156:	fe 81       	ldd	r31, Y+6	; 0x06
    1158:	8e 0e       	add	r8, r30
    115a:	9f 1e       	adc	r9, r31
    115c:	2e 2d       	mov	r18, r14
    115e:	a5 01       	movw	r20, r10
    1160:	b4 01       	movw	r22, r8
    1162:	c1 01       	movw	r24, r2
    1164:	0e 94 74 04 	call	0x8e8	; 0x8e8 <mp_narLiniePoz>
    1168:	8b 81       	ldd	r24, Y+3	; 0x03
    116a:	9c 81       	ldd	r25, Y+4	; 0x04
    116c:	28 0e       	add	r2, r24
    116e:	39 1e       	adc	r3, r25
    1170:	2e 2d       	mov	r18, r14
    1172:	a5 01       	movw	r20, r10
    1174:	b4 01       	movw	r22, r8
    1176:	c1 01       	movw	r24, r2
    1178:	01 97       	sbiw	r24, 0x01	; 1
    117a:	0e 94 74 04 	call	0x8e8	; 0x8e8 <mp_narLiniePoz>
    117e:	0e 2d       	mov	r16, r14
    1180:	21 e0       	ldi	r18, 0x01	; 1
    1182:	4d 81       	ldd	r20, Y+5	; 0x05
    1184:	5e 81       	ldd	r21, Y+6	; 0x06
    1186:	b4 01       	movw	r22, r8
    1188:	c6 01       	movw	r24, r12
    118a:	0e 94 c9 07 	call	0xf92	; 0xf92 <mp_narOkragPomoc>
    118e:	ed 81       	ldd	r30, Y+5	; 0x05
    1190:	fe 81       	ldd	r31, Y+6	; 0x06
    1192:	2e 1a       	sub	r2, r30
    1194:	3f 0a       	sbc	r3, r31
    1196:	f1 e0       	ldi	r31, 0x01	; 1
    1198:	2f 1a       	sub	r2, r31
    119a:	31 08       	sbc	r3, r1
    119c:	22 e0       	ldi	r18, 0x02	; 2
    119e:	4d 81       	ldd	r20, Y+5	; 0x05
    11a0:	5e 81       	ldd	r21, Y+6	; 0x06
    11a2:	b4 01       	movw	r22, r8
    11a4:	c1 01       	movw	r24, r2
    11a6:	0e 94 c9 07 	call	0xf92	; 0xf92 <mp_narOkragPomoc>
    11aa:	a9 80       	ldd	r10, Y+1	; 0x01
    11ac:	ba 80       	ldd	r11, Y+2	; 0x02
    11ae:	8d 81       	ldd	r24, Y+5	; 0x05
    11b0:	9e 81       	ldd	r25, Y+6	; 0x06
    11b2:	a8 1a       	sub	r10, r24
    11b4:	b9 0a       	sbc	r11, r25
    11b6:	91 e0       	ldi	r25, 0x01	; 1
    11b8:	a9 1a       	sub	r10, r25
    11ba:	b1 08       	sbc	r11, r1
    11bc:	24 e0       	ldi	r18, 0x04	; 4
    11be:	4d 81       	ldd	r20, Y+5	; 0x05
    11c0:	5e 81       	ldd	r21, Y+6	; 0x06
    11c2:	b5 01       	movw	r22, r10
    11c4:	c1 01       	movw	r24, r2
    11c6:	0e 94 c9 07 	call	0xf92	; 0xf92 <mp_narOkragPomoc>
    11ca:	28 e0       	ldi	r18, 0x08	; 8
    11cc:	4d 81       	ldd	r20, Y+5	; 0x05
    11ce:	5e 81       	ldd	r21, Y+6	; 0x06
    11d0:	b5 01       	movw	r22, r10
    11d2:	c6 01       	movw	r24, r12
    11d4:	0e 94 c9 07 	call	0xf92	; 0xf92 <mp_narOkragPomoc>
    11d8:	26 96       	adiw	r28, 0x06	; 6
    11da:	0f b6       	in	r0, 0x3f	; 63
    11dc:	f8 94       	cli
    11de:	de bf       	out	0x3e, r29	; 62
    11e0:	0f be       	out	0x3f, r0	; 63
    11e2:	cd bf       	out	0x3d, r28	; 61
    11e4:	df 91       	pop	r29
    11e6:	cf 91       	pop	r28
    11e8:	1f 91       	pop	r17
    11ea:	0f 91       	pop	r16
    11ec:	ef 90       	pop	r14
    11ee:	df 90       	pop	r13
    11f0:	cf 90       	pop	r12
    11f2:	bf 90       	pop	r11
    11f4:	af 90       	pop	r10
    11f6:	9f 90       	pop	r9
    11f8:	8f 90       	pop	r8
    11fa:	7f 90       	pop	r7
    11fc:	6f 90       	pop	r6
    11fe:	5f 90       	pop	r5
    1200:	4f 90       	pop	r4
    1202:	3f 90       	pop	r3
    1204:	2f 90       	pop	r2
    1206:	08 95       	ret

00001208 <mp_wypProstOkrag>:
    1208:	2f 92       	push	r2
    120a:	3f 92       	push	r3
    120c:	4f 92       	push	r4
    120e:	5f 92       	push	r5
    1210:	6f 92       	push	r6
    1212:	7f 92       	push	r7
    1214:	8f 92       	push	r8
    1216:	9f 92       	push	r9
    1218:	af 92       	push	r10
    121a:	bf 92       	push	r11
    121c:	cf 92       	push	r12
    121e:	df 92       	push	r13
    1220:	ef 92       	push	r14
    1222:	ff 92       	push	r15
    1224:	0f 93       	push	r16
    1226:	1f 93       	push	r17
    1228:	cf 93       	push	r28
    122a:	df 93       	push	r29
    122c:	4c 01       	movw	r8, r24
    122e:	3b 01       	movw	r6, r22
    1230:	1a 01       	movw	r2, r20
    1232:	69 01       	movw	r12, r18
    1234:	c0 2f       	mov	r28, r16
    1236:	d0 e0       	ldi	r29, 0x00	; 0
    1238:	44 24       	eor	r4, r4
    123a:	55 24       	eor	r5, r5
    123c:	4c 1a       	sub	r4, r28
    123e:	5d 0a       	sbc	r5, r29
    1240:	44 0c       	add	r4, r4
    1242:	55 1c       	adc	r5, r5
    1244:	5c 01       	movw	r10, r24
    1246:	ac 0e       	add	r10, r28
    1248:	bd 1e       	adc	r11, r29
    124a:	44 0d       	add	r20, r4
    124c:	55 1d       	adc	r21, r5
    124e:	0e 2d       	mov	r16, r14
    1250:	96 01       	movw	r18, r12
    1252:	c5 01       	movw	r24, r10
    1254:	0e 94 4a 06 	call	0xc94	; 0xc94 <mp_wypProst>
    1258:	c4 0c       	add	r12, r4
    125a:	d5 1c       	adc	r13, r5
    125c:	81 e0       	ldi	r24, 0x01	; 1
    125e:	c8 1a       	sub	r12, r24
    1260:	d1 08       	sbc	r13, r1
    1262:	6c 0e       	add	r6, r28
    1264:	7d 1e       	adc	r7, r29
    1266:	c4 01       	movw	r24, r8
    1268:	82 0d       	add	r24, r2
    126a:	93 1d       	adc	r25, r3
    126c:	8c 1b       	sub	r24, r28
    126e:	9d 0b       	sbc	r25, r29
    1270:	86 01       	movw	r16, r12
    1272:	21 e0       	ldi	r18, 0x01	; 1
    1274:	ae 01       	movw	r20, r28
    1276:	b3 01       	movw	r22, r6
    1278:	01 97       	sbiw	r24, 0x01	; 1
    127a:	0e 94 40 05 	call	0xa80	; 0xa80 <mp_wypOkragPomoc>
    127e:	22 e0       	ldi	r18, 0x02	; 2
    1280:	ae 01       	movw	r20, r28
    1282:	b3 01       	movw	r22, r6
    1284:	c5 01       	movw	r24, r10
    1286:	0e 94 40 05 	call	0xa80	; 0xa80 <mp_wypOkragPomoc>
    128a:	df 91       	pop	r29
    128c:	cf 91       	pop	r28
    128e:	1f 91       	pop	r17
    1290:	0f 91       	pop	r16
    1292:	ff 90       	pop	r15
    1294:	ef 90       	pop	r14
    1296:	df 90       	pop	r13
    1298:	cf 90       	pop	r12
    129a:	bf 90       	pop	r11
    129c:	af 90       	pop	r10
    129e:	9f 90       	pop	r9
    12a0:	8f 90       	pop	r8
    12a2:	7f 90       	pop	r7
    12a4:	6f 90       	pop	r6
    12a6:	5f 90       	pop	r5
    12a8:	4f 90       	pop	r4
    12aa:	3f 90       	pop	r3
    12ac:	2f 90       	pop	r2
    12ae:	08 95       	ret

000012b0 <mp_narTrojkat>:
    12b0:	4f 92       	push	r4
    12b2:	5f 92       	push	r5
    12b4:	6f 92       	push	r6
    12b6:	7f 92       	push	r7
    12b8:	8f 92       	push	r8
    12ba:	9f 92       	push	r9
    12bc:	af 92       	push	r10
    12be:	bf 92       	push	r11
    12c0:	cf 92       	push	r12
    12c2:	ef 92       	push	r14
    12c4:	ff 92       	push	r15
    12c6:	0f 93       	push	r16
    12c8:	1f 93       	push	r17
    12ca:	cf 93       	push	r28
    12cc:	df 93       	push	r29
    12ce:	ec 01       	movw	r28, r24
    12d0:	5b 01       	movw	r10, r22
    12d2:	4a 01       	movw	r8, r20
    12d4:	39 01       	movw	r6, r18
    12d6:	28 01       	movw	r4, r16
    12d8:	0c 2d       	mov	r16, r12
    12da:	0e 94 e8 03 	call	0x7d0	; 0x7d0 <mp_narLinieDow>
    12de:	97 01       	movw	r18, r14
    12e0:	a2 01       	movw	r20, r4
    12e2:	b3 01       	movw	r22, r6
    12e4:	c4 01       	movw	r24, r8
    12e6:	0e 94 e8 03 	call	0x7d0	; 0x7d0 <mp_narLinieDow>
    12ea:	95 01       	movw	r18, r10
    12ec:	ae 01       	movw	r20, r28
    12ee:	b7 01       	movw	r22, r14
    12f0:	c2 01       	movw	r24, r4
    12f2:	0e 94 e8 03 	call	0x7d0	; 0x7d0 <mp_narLinieDow>
    12f6:	df 91       	pop	r29
    12f8:	cf 91       	pop	r28
    12fa:	1f 91       	pop	r17
    12fc:	0f 91       	pop	r16
    12fe:	ff 90       	pop	r15
    1300:	ef 90       	pop	r14
    1302:	cf 90       	pop	r12
    1304:	bf 90       	pop	r11
    1306:	af 90       	pop	r10
    1308:	9f 90       	pop	r9
    130a:	8f 90       	pop	r8
    130c:	7f 90       	pop	r7
    130e:	6f 90       	pop	r6
    1310:	5f 90       	pop	r5
    1312:	4f 90       	pop	r4
    1314:	08 95       	ret

00001316 <mp_wypTrojkat>:
    1316:	2f 92       	push	r2
    1318:	3f 92       	push	r3
    131a:	4f 92       	push	r4
    131c:	5f 92       	push	r5
    131e:	6f 92       	push	r6
    1320:	7f 92       	push	r7
    1322:	8f 92       	push	r8
    1324:	9f 92       	push	r9
    1326:	af 92       	push	r10
    1328:	bf 92       	push	r11
    132a:	cf 92       	push	r12
    132c:	df 92       	push	r13
    132e:	ef 92       	push	r14
    1330:	ff 92       	push	r15
    1332:	0f 93       	push	r16
    1334:	1f 93       	push	r17
    1336:	cf 93       	push	r28
    1338:	df 93       	push	r29
    133a:	cd b7       	in	r28, 0x3d	; 61
    133c:	de b7       	in	r29, 0x3e	; 62
    133e:	a9 97       	sbiw	r28, 0x29	; 41
    1340:	0f b6       	in	r0, 0x3f	; 63
    1342:	f8 94       	cli
    1344:	de bf       	out	0x3e, r29	; 62
    1346:	0f be       	out	0x3f, r0	; 63
    1348:	cd bf       	out	0x3d, r28	; 61
    134a:	4c 01       	movw	r8, r24
    134c:	3b 01       	movw	r6, r22
    134e:	5a 01       	movw	r10, r20
    1350:	39 a7       	std	Y+41, r19	; 0x29
    1352:	28 a7       	std	Y+40, r18	; 0x28
    1354:	27 01       	movw	r4, r14
    1356:	c9 8a       	std	Y+17, r12	; 0x11
    1358:	26 17       	cp	r18, r22
    135a:	37 07       	cpc	r19, r23
    135c:	4c f4       	brge	.+18     	; 0x1370 <mp_wypTrojkat+0x5a>
    135e:	87 2d       	mov	r24, r7
    1360:	39 01       	movw	r6, r18
    1362:	68 a7       	std	Y+40, r22	; 0x28
    1364:	89 a7       	std	Y+41, r24	; 0x29
    1366:	98 2d       	mov	r25, r8
    1368:	89 2d       	mov	r24, r9
    136a:	4a 01       	movw	r8, r20
    136c:	a9 2e       	mov	r10, r25
    136e:	b8 2e       	mov	r11, r24
    1370:	28 a5       	ldd	r18, Y+40	; 0x28
    1372:	39 a5       	ldd	r19, Y+41	; 0x29
    1374:	42 16       	cp	r4, r18
    1376:	53 06       	cpc	r5, r19
    1378:	5c f4       	brge	.+22     	; 0x1390 <mp_wypTrojkat+0x7a>
    137a:	98 a5       	ldd	r25, Y+40	; 0x28
    137c:	89 a5       	ldd	r24, Y+41	; 0x29
    137e:	59 a6       	std	Y+41, r5	; 0x29
    1380:	48 a6       	std	Y+40, r4	; 0x28
    1382:	49 2e       	mov	r4, r25
    1384:	58 2e       	mov	r5, r24
    1386:	9a 2d       	mov	r25, r10
    1388:	8b 2d       	mov	r24, r11
    138a:	58 01       	movw	r10, r16
    138c:	09 2f       	mov	r16, r25
    138e:	18 2f       	mov	r17, r24
    1390:	48 a5       	ldd	r20, Y+40	; 0x28
    1392:	59 a5       	ldd	r21, Y+41	; 0x29
    1394:	46 15       	cp	r20, r6
    1396:	57 05       	cpc	r21, r7
    1398:	54 f4       	brge	.+20     	; 0x13ae <mp_wypTrojkat+0x98>
    139a:	96 2d       	mov	r25, r6
    139c:	87 2d       	mov	r24, r7
    139e:	3a 01       	movw	r6, r20
    13a0:	98 a7       	std	Y+40, r25	; 0x28
    13a2:	89 a7       	std	Y+41, r24	; 0x29
    13a4:	98 2d       	mov	r25, r8
    13a6:	89 2d       	mov	r24, r9
    13a8:	45 01       	movw	r8, r10
    13aa:	a9 2e       	mov	r10, r25
    13ac:	b8 2e       	mov	r11, r24
    13ae:	64 14       	cp	r6, r4
    13b0:	75 04       	cpc	r7, r5
    13b2:	c1 f5       	brne	.+112    	; 0x1424 <mp_wypTrojkat+0x10e>
    13b4:	a8 14       	cp	r10, r8
    13b6:	b9 04       	cpc	r11, r9
    13b8:	34 f0       	brlt	.+12     	; 0x13c6 <mp_wypTrojkat+0xb0>
    13ba:	8a 14       	cp	r8, r10
    13bc:	9b 04       	cpc	r9, r11
    13be:	34 f0       	brlt	.+12     	; 0x13cc <mp_wypTrojkat+0xb6>
    13c0:	a4 01       	movw	r20, r8
    13c2:	c4 01       	movw	r24, r8
    13c4:	05 c0       	rjmp	.+10     	; 0x13d0 <mp_wypTrojkat+0xba>
    13c6:	a4 01       	movw	r20, r8
    13c8:	c5 01       	movw	r24, r10
    13ca:	02 c0       	rjmp	.+4      	; 0x13d0 <mp_wypTrojkat+0xba>
    13cc:	a5 01       	movw	r20, r10
    13ce:	c4 01       	movw	r24, r8
    13d0:	08 17       	cp	r16, r24
    13d2:	19 07       	cpc	r17, r25
    13d4:	24 f0       	brlt	.+8      	; 0x13de <mp_wypTrojkat+0xc8>
    13d6:	40 17       	cp	r20, r16
    13d8:	51 07       	cpc	r21, r17
    13da:	1c f0       	brlt	.+6      	; 0x13e2 <mp_wypTrojkat+0xcc>
    13dc:	03 c0       	rjmp	.+6      	; 0x13e4 <mp_wypTrojkat+0xce>
    13de:	c8 01       	movw	r24, r16
    13e0:	01 c0       	rjmp	.+2      	; 0x13e4 <mp_wypTrojkat+0xce>
    13e2:	a8 01       	movw	r20, r16
    13e4:	48 1b       	sub	r20, r24
    13e6:	59 0b       	sbc	r21, r25
    13e8:	4f 5f       	subi	r20, 0xFF	; 255
    13ea:	5f 4f       	sbci	r21, 0xFF	; 255
    13ec:	29 89       	ldd	r18, Y+17	; 0x11
    13ee:	b3 01       	movw	r22, r6
    13f0:	a9 96       	adiw	r28, 0x29	; 41
    13f2:	0f b6       	in	r0, 0x3f	; 63
    13f4:	f8 94       	cli
    13f6:	de bf       	out	0x3e, r29	; 62
    13f8:	0f be       	out	0x3f, r0	; 63
    13fa:	cd bf       	out	0x3d, r28	; 61
    13fc:	df 91       	pop	r29
    13fe:	cf 91       	pop	r28
    1400:	1f 91       	pop	r17
    1402:	0f 91       	pop	r16
    1404:	ff 90       	pop	r15
    1406:	ef 90       	pop	r14
    1408:	df 90       	pop	r13
    140a:	cf 90       	pop	r12
    140c:	bf 90       	pop	r11
    140e:	af 90       	pop	r10
    1410:	9f 90       	pop	r9
    1412:	8f 90       	pop	r8
    1414:	7f 90       	pop	r7
    1416:	6f 90       	pop	r6
    1418:	5f 90       	pop	r5
    141a:	4f 90       	pop	r4
    141c:	3f 90       	pop	r3
    141e:	2f 90       	pop	r2
    1420:	0c 94 7f 04 	jmp	0x8fe	; 0x8fe <mp_narLiniePion>
    1424:	c5 01       	movw	r24, r10
    1426:	88 19       	sub	r24, r8
    1428:	99 09       	sbc	r25, r9
    142a:	28 a5       	ldd	r18, Y+40	; 0x28
    142c:	39 a5       	ldd	r19, Y+41	; 0x29
    142e:	26 19       	sub	r18, r6
    1430:	37 09       	sbc	r19, r7
    1432:	b8 01       	movw	r22, r16
    1434:	68 19       	sub	r22, r8
    1436:	79 09       	sbc	r23, r9
    1438:	7e 83       	std	Y+6, r23	; 0x06
    143a:	6d 83       	std	Y+5, r22	; 0x05
    143c:	d2 01       	movw	r26, r4
    143e:	a6 19       	sub	r26, r6
    1440:	b7 09       	sbc	r27, r7
    1442:	ba 87       	std	Y+10, r27	; 0x0a
    1444:	a9 87       	std	Y+9, r26	; 0x09
    1446:	f8 01       	movw	r30, r16
    1448:	ea 19       	sub	r30, r10
    144a:	fb 09       	sbc	r31, r11
    144c:	fe 87       	std	Y+14, r31	; 0x0e
    144e:	ed 87       	std	Y+13, r30	; 0x0d
    1450:	a2 01       	movw	r20, r4
    1452:	68 a5       	ldd	r22, Y+40	; 0x28
    1454:	79 a5       	ldd	r23, Y+41	; 0x29
    1456:	46 1b       	sub	r20, r22
    1458:	57 0b       	sbc	r21, r23
    145a:	5b 8b       	std	Y+19, r21	; 0x13
    145c:	4a 8b       	std	Y+18, r20	; 0x12
    145e:	64 15       	cp	r22, r4
    1460:	75 05       	cpc	r23, r5
    1462:	29 f0       	breq	.+10     	; 0x146e <mp_wypTrojkat+0x158>
    1464:	61 50       	subi	r22, 0x01	; 1
    1466:	71 09       	sbc	r23, r1
    1468:	7f 8b       	std	Y+23, r23	; 0x17
    146a:	6e 8b       	std	Y+22, r22	; 0x16
    146c:	04 c0       	rjmp	.+8      	; 0x1476 <mp_wypTrojkat+0x160>
    146e:	a8 a5       	ldd	r26, Y+40	; 0x28
    1470:	b9 a5       	ldd	r27, Y+41	; 0x29
    1472:	bf 8b       	std	Y+23, r27	; 0x17
    1474:	ae 8b       	std	Y+22, r26	; 0x16
    1476:	13 01       	movw	r2, r6
    1478:	c1 2c       	mov	r12, r1
    147a:	d1 2c       	mov	r13, r1
    147c:	76 01       	movw	r14, r12
    147e:	19 82       	std	Y+1, r1	; 0x01
    1480:	1a 82       	std	Y+2, r1	; 0x02
    1482:	1b 82       	std	Y+3, r1	; 0x03
    1484:	1c 82       	std	Y+4, r1	; 0x04
    1486:	a9 01       	movw	r20, r18
    1488:	66 27       	eor	r22, r22
    148a:	57 fd       	sbrc	r21, 7
    148c:	60 95       	com	r22
    148e:	76 2f       	mov	r23, r22
    1490:	48 8f       	std	Y+24, r20	; 0x18
    1492:	59 8f       	std	Y+25, r21	; 0x19
    1494:	6a 8f       	std	Y+26, r22	; 0x1a
    1496:	7b 8f       	std	Y+27, r23	; 0x1b
    1498:	29 85       	ldd	r18, Y+9	; 0x09
    149a:	3a 85       	ldd	r19, Y+10	; 0x0a
    149c:	44 27       	eor	r20, r20
    149e:	37 fd       	sbrc	r19, 7
    14a0:	40 95       	com	r20
    14a2:	54 2f       	mov	r21, r20
    14a4:	2c 8f       	std	Y+28, r18	; 0x1c
    14a6:	3d 8f       	std	Y+29, r19	; 0x1d
    14a8:	4e 8f       	std	Y+30, r20	; 0x1e
    14aa:	5f 8f       	std	Y+31, r21	; 0x1f
    14ac:	ac 01       	movw	r20, r24
    14ae:	66 27       	eor	r22, r22
    14b0:	57 fd       	sbrc	r21, 7
    14b2:	60 95       	com	r22
    14b4:	76 2f       	mov	r23, r22
    14b6:	48 a3       	std	Y+32, r20	; 0x20
    14b8:	59 a3       	std	Y+33, r21	; 0x21
    14ba:	6a a3       	std	Y+34, r22	; 0x22
    14bc:	7b a3       	std	Y+35, r23	; 0x23
    14be:	6d 81       	ldd	r22, Y+5	; 0x05
    14c0:	7e 81       	ldd	r23, Y+6	; 0x06
    14c2:	88 27       	eor	r24, r24
    14c4:	77 fd       	sbrc	r23, 7
    14c6:	80 95       	com	r24
    14c8:	98 2f       	mov	r25, r24
    14ca:	6c a3       	std	Y+36, r22	; 0x24
    14cc:	7d a3       	std	Y+37, r23	; 0x25
    14ce:	8e a3       	std	Y+38, r24	; 0x26
    14d0:	9f a3       	std	Y+39, r25	; 0x27
    14d2:	44 c0       	rjmp	.+136    	; 0x155c <mp_wypTrojkat+0x246>
    14d4:	69 81       	ldd	r22, Y+1	; 0x01
    14d6:	7a 81       	ldd	r23, Y+2	; 0x02
    14d8:	8b 81       	ldd	r24, Y+3	; 0x03
    14da:	9c 81       	ldd	r25, Y+4	; 0x04
    14dc:	28 8d       	ldd	r18, Y+24	; 0x18
    14de:	39 8d       	ldd	r19, Y+25	; 0x19
    14e0:	4a 8d       	ldd	r20, Y+26	; 0x1a
    14e2:	5b 8d       	ldd	r21, Y+27	; 0x1b
    14e4:	0e 94 35 10 	call	0x206a	; 0x206a <__divmodsi4>
    14e8:	84 01       	movw	r16, r8
    14ea:	02 0f       	add	r16, r18
    14ec:	13 1f       	adc	r17, r19
    14ee:	c7 01       	movw	r24, r14
    14f0:	b6 01       	movw	r22, r12
    14f2:	2c 8d       	ldd	r18, Y+28	; 0x1c
    14f4:	3d 8d       	ldd	r19, Y+29	; 0x1d
    14f6:	4e 8d       	ldd	r20, Y+30	; 0x1e
    14f8:	5f 8d       	ldd	r21, Y+31	; 0x1f
    14fa:	0e 94 35 10 	call	0x206a	; 0x206a <__divmodsi4>
    14fe:	28 0d       	add	r18, r8
    1500:	39 1d       	adc	r19, r9
    1502:	89 81       	ldd	r24, Y+1	; 0x01
    1504:	9a 81       	ldd	r25, Y+2	; 0x02
    1506:	ab 81       	ldd	r26, Y+3	; 0x03
    1508:	bc 81       	ldd	r27, Y+4	; 0x04
    150a:	48 a1       	ldd	r20, Y+32	; 0x20
    150c:	59 a1       	ldd	r21, Y+33	; 0x21
    150e:	6a a1       	ldd	r22, Y+34	; 0x22
    1510:	7b a1       	ldd	r23, Y+35	; 0x23
    1512:	84 0f       	add	r24, r20
    1514:	95 1f       	adc	r25, r21
    1516:	a6 1f       	adc	r26, r22
    1518:	b7 1f       	adc	r27, r23
    151a:	89 83       	std	Y+1, r24	; 0x01
    151c:	9a 83       	std	Y+2, r25	; 0x02
    151e:	ab 83       	std	Y+3, r26	; 0x03
    1520:	bc 83       	std	Y+4, r27	; 0x04
    1522:	6c a1       	ldd	r22, Y+36	; 0x24
    1524:	7d a1       	ldd	r23, Y+37	; 0x25
    1526:	8e a1       	ldd	r24, Y+38	; 0x26
    1528:	9f a1       	ldd	r25, Y+39	; 0x27
    152a:	c6 0e       	add	r12, r22
    152c:	d7 1e       	adc	r13, r23
    152e:	e8 1e       	adc	r14, r24
    1530:	f9 1e       	adc	r15, r25
    1532:	20 17       	cp	r18, r16
    1534:	31 07       	cpc	r19, r17
    1536:	2c f4       	brge	.+10     	; 0x1542 <mp_wypTrojkat+0x22c>
    1538:	90 2f       	mov	r25, r16
    153a:	81 2f       	mov	r24, r17
    153c:	89 01       	movw	r16, r18
    153e:	29 2f       	mov	r18, r25
    1540:	38 2f       	mov	r19, r24
    1542:	a9 01       	movw	r20, r18
    1544:	40 1b       	sub	r20, r16
    1546:	51 0b       	sbc	r21, r17
    1548:	4f 5f       	subi	r20, 0xFF	; 255
    154a:	5f 4f       	sbci	r21, 0xFF	; 255
    154c:	29 89       	ldd	r18, Y+17	; 0x11
    154e:	b1 01       	movw	r22, r2
    1550:	c8 01       	movw	r24, r16
    1552:	0e 94 7f 04 	call	0x8fe	; 0x8fe <mp_narLiniePion>
    1556:	7f ef       	ldi	r23, 0xFF	; 255
    1558:	27 1a       	sub	r2, r23
    155a:	37 0a       	sbc	r3, r23
    155c:	8e 89       	ldd	r24, Y+22	; 0x16
    155e:	9f 89       	ldd	r25, Y+23	; 0x17
    1560:	82 15       	cp	r24, r2
    1562:	93 05       	cpc	r25, r3
    1564:	0c f0       	brlt	.+2      	; 0x1568 <mp_wypTrojkat+0x252>
    1566:	b6 cf       	rjmp	.-148    	; 0x14d4 <mp_wypTrojkat+0x1be>
    1568:	c1 01       	movw	r24, r2
    156a:	a8 a5       	ldd	r26, Y+40	; 0x28
    156c:	b9 a5       	ldd	r27, Y+41	; 0x29
    156e:	8a 1b       	sub	r24, r26
    1570:	9b 0b       	sbc	r25, r27
    1572:	ed 85       	ldd	r30, Y+13	; 0x0d
    1574:	fe 85       	ldd	r31, Y+14	; 0x0e
    1576:	e8 9f       	mul	r30, r24
    1578:	60 01       	movw	r12, r0
    157a:	e9 9f       	mul	r30, r25
    157c:	d0 0c       	add	r13, r0
    157e:	f8 9f       	mul	r31, r24
    1580:	d0 0c       	add	r13, r0
    1582:	11 24       	eor	r1, r1
    1584:	ee 24       	eor	r14, r14
    1586:	d7 fc       	sbrc	r13, 7
    1588:	e0 94       	com	r14
    158a:	fe 2c       	mov	r15, r14
    158c:	91 01       	movw	r18, r2
    158e:	26 19       	sub	r18, r6
    1590:	37 09       	sbc	r19, r7
    1592:	4d 81       	ldd	r20, Y+5	; 0x05
    1594:	5e 81       	ldd	r21, Y+6	; 0x06
    1596:	42 9f       	mul	r20, r18
    1598:	c0 01       	movw	r24, r0
    159a:	43 9f       	mul	r20, r19
    159c:	90 0d       	add	r25, r0
    159e:	52 9f       	mul	r21, r18
    15a0:	90 0d       	add	r25, r0
    15a2:	11 24       	eor	r1, r1
    15a4:	9c 01       	movw	r18, r24
    15a6:	44 27       	eor	r20, r20
    15a8:	37 fd       	sbrc	r19, 7
    15aa:	40 95       	com	r20
    15ac:	54 2f       	mov	r21, r20
    15ae:	29 83       	std	Y+1, r18	; 0x01
    15b0:	3a 83       	std	Y+2, r19	; 0x02
    15b2:	4b 83       	std	Y+3, r20	; 0x03
    15b4:	5c 83       	std	Y+4, r21	; 0x04
    15b6:	4a 89       	ldd	r20, Y+18	; 0x12
    15b8:	5b 89       	ldd	r21, Y+19	; 0x13
    15ba:	66 27       	eor	r22, r22
    15bc:	57 fd       	sbrc	r21, 7
    15be:	60 95       	com	r22
    15c0:	76 2f       	mov	r23, r22
    15c2:	4a 8b       	std	Y+18, r20	; 0x12
    15c4:	5b 8b       	std	Y+19, r21	; 0x13
    15c6:	6c 8b       	std	Y+20, r22	; 0x14
    15c8:	7d 8b       	std	Y+21, r23	; 0x15
    15ca:	69 85       	ldd	r22, Y+9	; 0x09
    15cc:	7a 85       	ldd	r23, Y+10	; 0x0a
    15ce:	88 27       	eor	r24, r24
    15d0:	77 fd       	sbrc	r23, 7
    15d2:	80 95       	com	r24
    15d4:	98 2f       	mov	r25, r24
    15d6:	69 87       	std	Y+9, r22	; 0x09
    15d8:	7a 87       	std	Y+10, r23	; 0x0a
    15da:	8b 87       	std	Y+11, r24	; 0x0b
    15dc:	9c 87       	std	Y+12, r25	; 0x0c
    15de:	cf 01       	movw	r24, r30
    15e0:	aa 27       	eor	r26, r26
    15e2:	97 fd       	sbrc	r25, 7
    15e4:	a0 95       	com	r26
    15e6:	ba 2f       	mov	r27, r26
    15e8:	8d 87       	std	Y+13, r24	; 0x0d
    15ea:	9e 87       	std	Y+14, r25	; 0x0e
    15ec:	af 87       	std	Y+15, r26	; 0x0f
    15ee:	b8 8b       	std	Y+16, r27	; 0x10
    15f0:	2d 81       	ldd	r18, Y+5	; 0x05
    15f2:	3e 81       	ldd	r19, Y+6	; 0x06
    15f4:	44 27       	eor	r20, r20
    15f6:	37 fd       	sbrc	r19, 7
    15f8:	40 95       	com	r20
    15fa:	54 2f       	mov	r21, r20
    15fc:	2d 83       	std	Y+5, r18	; 0x05
    15fe:	3e 83       	std	Y+6, r19	; 0x06
    1600:	4f 83       	std	Y+7, r20	; 0x07
    1602:	58 87       	std	Y+8, r21	; 0x08
    1604:	44 c0       	rjmp	.+136    	; 0x168e <mp_wypTrojkat+0x378>
    1606:	c7 01       	movw	r24, r14
    1608:	b6 01       	movw	r22, r12
    160a:	2a 89       	ldd	r18, Y+18	; 0x12
    160c:	3b 89       	ldd	r19, Y+19	; 0x13
    160e:	4c 89       	ldd	r20, Y+20	; 0x14
    1610:	5d 89       	ldd	r21, Y+21	; 0x15
    1612:	0e 94 35 10 	call	0x206a	; 0x206a <__divmodsi4>
    1616:	85 01       	movw	r16, r10
    1618:	02 0f       	add	r16, r18
    161a:	13 1f       	adc	r17, r19
    161c:	69 81       	ldd	r22, Y+1	; 0x01
    161e:	7a 81       	ldd	r23, Y+2	; 0x02
    1620:	8b 81       	ldd	r24, Y+3	; 0x03
    1622:	9c 81       	ldd	r25, Y+4	; 0x04
    1624:	29 85       	ldd	r18, Y+9	; 0x09
    1626:	3a 85       	ldd	r19, Y+10	; 0x0a
    1628:	4b 85       	ldd	r20, Y+11	; 0x0b
    162a:	5c 85       	ldd	r21, Y+12	; 0x0c
    162c:	0e 94 35 10 	call	0x206a	; 0x206a <__divmodsi4>
    1630:	28 0d       	add	r18, r8
    1632:	39 1d       	adc	r19, r9
    1634:	4d 85       	ldd	r20, Y+13	; 0x0d
    1636:	5e 85       	ldd	r21, Y+14	; 0x0e
    1638:	6f 85       	ldd	r22, Y+15	; 0x0f
    163a:	78 89       	ldd	r23, Y+16	; 0x10
    163c:	c4 0e       	add	r12, r20
    163e:	d5 1e       	adc	r13, r21
    1640:	e6 1e       	adc	r14, r22
    1642:	f7 1e       	adc	r15, r23
    1644:	89 81       	ldd	r24, Y+1	; 0x01
    1646:	9a 81       	ldd	r25, Y+2	; 0x02
    1648:	ab 81       	ldd	r26, Y+3	; 0x03
    164a:	bc 81       	ldd	r27, Y+4	; 0x04
    164c:	4d 81       	ldd	r20, Y+5	; 0x05
    164e:	5e 81       	ldd	r21, Y+6	; 0x06
    1650:	6f 81       	ldd	r22, Y+7	; 0x07
    1652:	78 85       	ldd	r23, Y+8	; 0x08
    1654:	84 0f       	add	r24, r20
    1656:	95 1f       	adc	r25, r21
    1658:	a6 1f       	adc	r26, r22
    165a:	b7 1f       	adc	r27, r23
    165c:	89 83       	std	Y+1, r24	; 0x01
    165e:	9a 83       	std	Y+2, r25	; 0x02
    1660:	ab 83       	std	Y+3, r26	; 0x03
    1662:	bc 83       	std	Y+4, r27	; 0x04
    1664:	20 17       	cp	r18, r16
    1666:	31 07       	cpc	r19, r17
    1668:	2c f4       	brge	.+10     	; 0x1674 <mp_wypTrojkat+0x35e>
    166a:	90 2f       	mov	r25, r16
    166c:	81 2f       	mov	r24, r17
    166e:	89 01       	movw	r16, r18
    1670:	29 2f       	mov	r18, r25
    1672:	38 2f       	mov	r19, r24
    1674:	a9 01       	movw	r20, r18
    1676:	40 1b       	sub	r20, r16
    1678:	51 0b       	sbc	r21, r17
    167a:	4f 5f       	subi	r20, 0xFF	; 255
    167c:	5f 4f       	sbci	r21, 0xFF	; 255
    167e:	29 89       	ldd	r18, Y+17	; 0x11
    1680:	b1 01       	movw	r22, r2
    1682:	c8 01       	movw	r24, r16
    1684:	0e 94 7f 04 	call	0x8fe	; 0x8fe <mp_narLiniePion>
    1688:	5f ef       	ldi	r21, 0xFF	; 255
    168a:	25 1a       	sub	r2, r21
    168c:	35 0a       	sbc	r3, r21
    168e:	42 14       	cp	r4, r2
    1690:	53 04       	cpc	r5, r3
    1692:	0c f0       	brlt	.+2      	; 0x1696 <mp_wypTrojkat+0x380>
    1694:	b8 cf       	rjmp	.-144    	; 0x1606 <mp_wypTrojkat+0x2f0>
    1696:	a9 96       	adiw	r28, 0x29	; 41
    1698:	0f b6       	in	r0, 0x3f	; 63
    169a:	f8 94       	cli
    169c:	de bf       	out	0x3e, r29	; 62
    169e:	0f be       	out	0x3f, r0	; 63
    16a0:	cd bf       	out	0x3d, r28	; 61
    16a2:	df 91       	pop	r29
    16a4:	cf 91       	pop	r28
    16a6:	1f 91       	pop	r17
    16a8:	0f 91       	pop	r16
    16aa:	ff 90       	pop	r15
    16ac:	ef 90       	pop	r14
    16ae:	df 90       	pop	r13
    16b0:	cf 90       	pop	r12
    16b2:	bf 90       	pop	r11
    16b4:	af 90       	pop	r10
    16b6:	9f 90       	pop	r9
    16b8:	8f 90       	pop	r8
    16ba:	7f 90       	pop	r7
    16bc:	6f 90       	pop	r6
    16be:	5f 90       	pop	r5
    16c0:	4f 90       	pop	r4
    16c2:	3f 90       	pop	r3
    16c4:	2f 90       	pop	r2
    16c6:	08 95       	ret

000016c8 <mp_startPrzewPrawo>:
    16c8:	1f 93       	push	r17
    16ca:	cf 93       	push	r28
    16cc:	df 93       	push	r29
    16ce:	1f 92       	push	r1
    16d0:	cd b7       	in	r28, 0x3d	; 61
    16d2:	de b7       	in	r29, 0x3e	; 62
    16d4:	18 2f       	mov	r17, r24
    16d6:	86 e2       	ldi	r24, 0x26	; 38
    16d8:	69 83       	std	Y+1, r22	; 0x01
    16da:	0e 94 25 0c 	call	0x184a	; 0x184a <mp_ssd1306_cmd>
    16de:	80 e0       	ldi	r24, 0x00	; 0
    16e0:	0e 94 25 0c 	call	0x184a	; 0x184a <mp_ssd1306_cmd>
    16e4:	81 2f       	mov	r24, r17
    16e6:	0e 94 25 0c 	call	0x184a	; 0x184a <mp_ssd1306_cmd>
    16ea:	80 e0       	ldi	r24, 0x00	; 0
    16ec:	0e 94 25 0c 	call	0x184a	; 0x184a <mp_ssd1306_cmd>
    16f0:	69 81       	ldd	r22, Y+1	; 0x01
    16f2:	86 2f       	mov	r24, r22
    16f4:	0e 94 25 0c 	call	0x184a	; 0x184a <mp_ssd1306_cmd>
    16f8:	81 e0       	ldi	r24, 0x01	; 1
    16fa:	0e 94 25 0c 	call	0x184a	; 0x184a <mp_ssd1306_cmd>
    16fe:	8f ef       	ldi	r24, 0xFF	; 255
    1700:	0e 94 25 0c 	call	0x184a	; 0x184a <mp_ssd1306_cmd>
    1704:	8f e2       	ldi	r24, 0x2F	; 47
    1706:	0f 90       	pop	r0
    1708:	df 91       	pop	r29
    170a:	cf 91       	pop	r28
    170c:	1f 91       	pop	r17
    170e:	0c 94 25 0c 	jmp	0x184a	; 0x184a <mp_ssd1306_cmd>

00001712 <mp_startPrzewLewo>:
    1712:	1f 93       	push	r17
    1714:	cf 93       	push	r28
    1716:	df 93       	push	r29
    1718:	1f 92       	push	r1
    171a:	cd b7       	in	r28, 0x3d	; 61
    171c:	de b7       	in	r29, 0x3e	; 62
    171e:	18 2f       	mov	r17, r24
    1720:	87 e2       	ldi	r24, 0x27	; 39
    1722:	69 83       	std	Y+1, r22	; 0x01
    1724:	0e 94 25 0c 	call	0x184a	; 0x184a <mp_ssd1306_cmd>
    1728:	80 e0       	ldi	r24, 0x00	; 0
    172a:	0e 94 25 0c 	call	0x184a	; 0x184a <mp_ssd1306_cmd>
    172e:	81 2f       	mov	r24, r17
    1730:	0e 94 25 0c 	call	0x184a	; 0x184a <mp_ssd1306_cmd>
    1734:	80 e0       	ldi	r24, 0x00	; 0
    1736:	0e 94 25 0c 	call	0x184a	; 0x184a <mp_ssd1306_cmd>
    173a:	69 81       	ldd	r22, Y+1	; 0x01
    173c:	86 2f       	mov	r24, r22
    173e:	0e 94 25 0c 	call	0x184a	; 0x184a <mp_ssd1306_cmd>
    1742:	81 e0       	ldi	r24, 0x01	; 1
    1744:	0e 94 25 0c 	call	0x184a	; 0x184a <mp_ssd1306_cmd>
    1748:	8f ef       	ldi	r24, 0xFF	; 255
    174a:	0e 94 25 0c 	call	0x184a	; 0x184a <mp_ssd1306_cmd>
    174e:	8f e2       	ldi	r24, 0x2F	; 47
    1750:	0f 90       	pop	r0
    1752:	df 91       	pop	r29
    1754:	cf 91       	pop	r28
    1756:	1f 91       	pop	r17
    1758:	0c 94 25 0c 	jmp	0x184a	; 0x184a <mp_ssd1306_cmd>

0000175c <mp_startPrzewUkosPrawo>:
    175c:	1f 93       	push	r17
    175e:	cf 93       	push	r28
    1760:	df 93       	push	r29
    1762:	1f 92       	push	r1
    1764:	cd b7       	in	r28, 0x3d	; 61
    1766:	de b7       	in	r29, 0x3e	; 62
    1768:	18 2f       	mov	r17, r24
    176a:	83 ea       	ldi	r24, 0xA3	; 163
    176c:	69 83       	std	Y+1, r22	; 0x01
    176e:	0e 94 25 0c 	call	0x184a	; 0x184a <mp_ssd1306_cmd>
    1772:	80 e0       	ldi	r24, 0x00	; 0
    1774:	0e 94 25 0c 	call	0x184a	; 0x184a <mp_ssd1306_cmd>
    1778:	80 e4       	ldi	r24, 0x40	; 64
    177a:	0e 94 25 0c 	call	0x184a	; 0x184a <mp_ssd1306_cmd>
    177e:	89 e2       	ldi	r24, 0x29	; 41
    1780:	0e 94 25 0c 	call	0x184a	; 0x184a <mp_ssd1306_cmd>
    1784:	80 e0       	ldi	r24, 0x00	; 0
    1786:	0e 94 25 0c 	call	0x184a	; 0x184a <mp_ssd1306_cmd>
    178a:	81 2f       	mov	r24, r17
    178c:	0e 94 25 0c 	call	0x184a	; 0x184a <mp_ssd1306_cmd>
    1790:	80 e0       	ldi	r24, 0x00	; 0
    1792:	0e 94 25 0c 	call	0x184a	; 0x184a <mp_ssd1306_cmd>
    1796:	69 81       	ldd	r22, Y+1	; 0x01
    1798:	86 2f       	mov	r24, r22
    179a:	0e 94 25 0c 	call	0x184a	; 0x184a <mp_ssd1306_cmd>
    179e:	81 e0       	ldi	r24, 0x01	; 1
    17a0:	0e 94 25 0c 	call	0x184a	; 0x184a <mp_ssd1306_cmd>
    17a4:	8f e2       	ldi	r24, 0x2F	; 47
    17a6:	0f 90       	pop	r0
    17a8:	df 91       	pop	r29
    17aa:	cf 91       	pop	r28
    17ac:	1f 91       	pop	r17
    17ae:	0c 94 25 0c 	jmp	0x184a	; 0x184a <mp_ssd1306_cmd>

000017b2 <mp_startPrzewUkosLewo>:
    17b2:	1f 93       	push	r17
    17b4:	cf 93       	push	r28
    17b6:	df 93       	push	r29
    17b8:	1f 92       	push	r1
    17ba:	cd b7       	in	r28, 0x3d	; 61
    17bc:	de b7       	in	r29, 0x3e	; 62
    17be:	18 2f       	mov	r17, r24
    17c0:	83 ea       	ldi	r24, 0xA3	; 163
    17c2:	69 83       	std	Y+1, r22	; 0x01
    17c4:	0e 94 25 0c 	call	0x184a	; 0x184a <mp_ssd1306_cmd>
    17c8:	80 e0       	ldi	r24, 0x00	; 0
    17ca:	0e 94 25 0c 	call	0x184a	; 0x184a <mp_ssd1306_cmd>
    17ce:	80 e4       	ldi	r24, 0x40	; 64
    17d0:	0e 94 25 0c 	call	0x184a	; 0x184a <mp_ssd1306_cmd>
    17d4:	8a e2       	ldi	r24, 0x2A	; 42
    17d6:	0e 94 25 0c 	call	0x184a	; 0x184a <mp_ssd1306_cmd>
    17da:	80 e0       	ldi	r24, 0x00	; 0
    17dc:	0e 94 25 0c 	call	0x184a	; 0x184a <mp_ssd1306_cmd>
    17e0:	81 2f       	mov	r24, r17
    17e2:	0e 94 25 0c 	call	0x184a	; 0x184a <mp_ssd1306_cmd>
    17e6:	80 e0       	ldi	r24, 0x00	; 0
    17e8:	0e 94 25 0c 	call	0x184a	; 0x184a <mp_ssd1306_cmd>
    17ec:	69 81       	ldd	r22, Y+1	; 0x01
    17ee:	86 2f       	mov	r24, r22
    17f0:	0e 94 25 0c 	call	0x184a	; 0x184a <mp_ssd1306_cmd>
    17f4:	81 e0       	ldi	r24, 0x01	; 1
    17f6:	0e 94 25 0c 	call	0x184a	; 0x184a <mp_ssd1306_cmd>
    17fa:	8f e2       	ldi	r24, 0x2F	; 47
    17fc:	0f 90       	pop	r0
    17fe:	df 91       	pop	r29
    1800:	cf 91       	pop	r28
    1802:	1f 91       	pop	r17
    1804:	0c 94 25 0c 	jmp	0x184a	; 0x184a <mp_ssd1306_cmd>

00001808 <mp_stopPrzew>:
    1808:	8e e2       	ldi	r24, 0x2E	; 46
    180a:	0c 94 25 0c 	jmp	0x184a	; 0x184a <mp_ssd1306_cmd>

0000180e <mp_mrugajEkran>:
    180e:	88 23       	and	r24, r24
    1810:	11 f0       	breq	.+4      	; 0x1816 <mp_mrugajEkran+0x8>
    1812:	87 ea       	ldi	r24, 0xA7	; 167
    1814:	01 c0       	rjmp	.+2      	; 0x1818 <mp_mrugajEkran+0xa>
    1816:	86 ea       	ldi	r24, 0xA6	; 166
    1818:	0c 94 25 0c 	jmp	0x184a	; 0x184a <mp_ssd1306_cmd>

0000181c <SPIwrite>:
    181c:	28 e0       	ldi	r18, 0x08	; 8
    181e:	30 e0       	ldi	r19, 0x00	; 0
    1820:	90 e8       	ldi	r25, 0x80	; 128
    1822:	af 98       	cbi	0x15, 7	; 21
    1824:	49 2f       	mov	r20, r25
    1826:	48 23       	and	r20, r24
    1828:	11 f0       	breq	.+4      	; 0x182e <SPIwrite+0x12>
    182a:	ae 9a       	sbi	0x15, 6	; 21
    182c:	01 c0       	rjmp	.+2      	; 0x1830 <SPIwrite+0x14>
    182e:	ae 98       	cbi	0x15, 6	; 21
    1830:	af 9a       	sbi	0x15, 7	; 21
    1832:	96 95       	lsr	r25
    1834:	21 50       	subi	r18, 0x01	; 1
    1836:	31 09       	sbc	r19, r1
    1838:	a1 f7       	brne	.-24     	; 0x1822 <SPIwrite+0x6>
    183a:	08 95       	ret

0000183c <ssd1306_InitSpi>:
    183c:	a6 9a       	sbi	0x14, 6	; 20
    183e:	a7 9a       	sbi	0x14, 7	; 20
    1840:	af 9a       	sbi	0x15, 7	; 21
    1842:	a5 9a       	sbi	0x14, 5	; 20
    1844:	ad 9a       	sbi	0x15, 5	; 21
    1846:	a4 9a       	sbi	0x14, 4	; 20
    1848:	08 95       	ret

0000184a <mp_ssd1306_cmd>:
    184a:	ac 98       	cbi	0x15, 4	; 21
    184c:	0c 94 0e 0c 	jmp	0x181c	; 0x181c <SPIwrite>

00001850 <mp_ssd1306_data>:
    1850:	ac 9a       	sbi	0x15, 4	; 21
    1852:	0c 94 0e 0c 	jmp	0x181c	; 0x181c <SPIwrite>

00001856 <mp_ssd1306_display>:
    1856:	cf 93       	push	r28
    1858:	df 93       	push	r29
    185a:	80 e0       	ldi	r24, 0x00	; 0
    185c:	0e 94 25 0c 	call	0x184a	; 0x184a <mp_ssd1306_cmd>
    1860:	80 e1       	ldi	r24, 0x10	; 16
    1862:	0e 94 25 0c 	call	0x184a	; 0x184a <mp_ssd1306_cmd>
    1866:	80 e4       	ldi	r24, 0x40	; 64
    1868:	0e 94 25 0c 	call	0x184a	; 0x184a <mp_ssd1306_cmd>
    186c:	ac 9a       	sbi	0x15, 4	; 21
    186e:	c6 e7       	ldi	r28, 0x76	; 118
    1870:	d0 e0       	ldi	r29, 0x00	; 0
    1872:	89 91       	ld	r24, Y+
    1874:	0e 94 0e 0c 	call	0x181c	; 0x181c <SPIwrite>
    1878:	84 e0       	ldi	r24, 0x04	; 4
    187a:	c6 37       	cpi	r28, 0x76	; 118
    187c:	d8 07       	cpc	r29, r24
    187e:	c9 f7       	brne	.-14     	; 0x1872 <mp_ssd1306_display+0x1c>
    1880:	df 91       	pop	r29
    1882:	cf 91       	pop	r28
    1884:	08 95       	ret

00001886 <mp_ssd1306_drawPixel>:
    1886:	80 38       	cpi	r24, 0x80	; 128
    1888:	91 05       	cpc	r25, r1
    188a:	30 f5       	brcc	.+76     	; 0x18d8 <mp_ssd1306_drawPixel+0x52>
    188c:	77 fd       	sbrc	r23, 7
    188e:	24 c0       	rjmp	.+72     	; 0x18d8 <mp_ssd1306_drawPixel+0x52>
    1890:	60 34       	cpi	r22, 0x40	; 64
    1892:	71 05       	cpc	r23, r1
    1894:	0c f5       	brge	.+66     	; 0x18d8 <mp_ssd1306_drawPixel+0x52>
    1896:	fb 01       	movw	r30, r22
    1898:	23 e0       	ldi	r18, 0x03	; 3
    189a:	f5 95       	asr	r31
    189c:	e7 95       	ror	r30
    189e:	2a 95       	dec	r18
    18a0:	e1 f7       	brne	.-8      	; 0x189a <mp_ssd1306_drawPixel+0x14>
    18a2:	67 70       	andi	r22, 0x07	; 7
    18a4:	77 27       	eor	r23, r23
    18a6:	f6 95       	lsr	r31
    18a8:	fe 2f       	mov	r31, r30
    18aa:	ee 27       	eor	r30, r30
    18ac:	f7 95       	ror	r31
    18ae:	e7 95       	ror	r30
    18b0:	e8 0f       	add	r30, r24
    18b2:	f9 1f       	adc	r31, r25
    18b4:	ea 58       	subi	r30, 0x8A	; 138
    18b6:	ff 4f       	sbci	r31, 0xFF	; 255
    18b8:	81 e0       	ldi	r24, 0x01	; 1
    18ba:	90 e0       	ldi	r25, 0x00	; 0
    18bc:	06 2e       	mov	r0, r22
    18be:	01 c0       	rjmp	.+2      	; 0x18c2 <mp_ssd1306_drawPixel+0x3c>
    18c0:	88 0f       	add	r24, r24
    18c2:	0a 94       	dec	r0
    18c4:	ea f7       	brpl	.-6      	; 0x18c0 <mp_ssd1306_drawPixel+0x3a>
    18c6:	44 23       	and	r20, r20
    18c8:	19 f0       	breq	.+6      	; 0x18d0 <mp_ssd1306_drawPixel+0x4a>
    18ca:	90 81       	ld	r25, Z
    18cc:	98 2b       	or	r25, r24
    18ce:	03 c0       	rjmp	.+6      	; 0x18d6 <mp_ssd1306_drawPixel+0x50>
    18d0:	80 95       	com	r24
    18d2:	90 81       	ld	r25, Z
    18d4:	98 23       	and	r25, r24
    18d6:	90 83       	st	Z, r25
    18d8:	08 95       	ret

000018da <mp_ssd1306_cls>:
    18da:	80 e0       	ldi	r24, 0x00	; 0
    18dc:	94 e0       	ldi	r25, 0x04	; 4
    18de:	e6 e7       	ldi	r30, 0x76	; 118
    18e0:	f0 e0       	ldi	r31, 0x00	; 0
    18e2:	df 01       	movw	r26, r30
    18e4:	9c 01       	movw	r18, r24
    18e6:	1d 92       	st	X+, r1
    18e8:	21 50       	subi	r18, 0x01	; 1
    18ea:	30 40       	sbci	r19, 0x00	; 0
    18ec:	e1 f7       	brne	.-8      	; 0x18e6 <mp_ssd1306_cls+0xc>
    18ee:	08 95       	ret

000018f0 <mp_ssd1306_init>:
    18f0:	0f 93       	push	r16
    18f2:	1f 93       	push	r17
    18f4:	cf 93       	push	r28
    18f6:	df 93       	push	r29
    18f8:	1f 92       	push	r1
    18fa:	cd b7       	in	r28, 0x3d	; 61
    18fc:	de b7       	in	r29, 0x3e	; 62
    18fe:	18 2f       	mov	r17, r24
    1900:	06 2f       	mov	r16, r22
    1902:	49 83       	std	Y+1, r20	; 0x01
    1904:	0e 94 1e 0c 	call	0x183c	; 0x183c <ssd1306_InitSpi>
    1908:	49 81       	ldd	r20, Y+1	; 0x01
    190a:	41 11       	cpse	r20, r1
    190c:	0f c0       	rjmp	.+30     	; 0x192c <mp_ssd1306_init+0x3c>
    190e:	ad 9a       	sbi	0x15, 5	; 21
    1910:	8f e4       	ldi	r24, 0x4F	; 79
    1912:	93 ec       	ldi	r25, 0xC3	; 195
    1914:	01 97       	sbiw	r24, 0x01	; 1
    1916:	f1 f7       	brne	.-4      	; 0x1914 <mp_ssd1306_init+0x24>
    1918:	00 c0       	rjmp	.+0      	; 0x191a <mp_ssd1306_init+0x2a>
    191a:	00 00       	nop
    191c:	ad 98       	cbi	0x15, 5	; 21
    191e:	ef e4       	ldi	r30, 0x4F	; 79
    1920:	f3 ec       	ldi	r31, 0xC3	; 195
    1922:	31 97       	sbiw	r30, 0x01	; 1
    1924:	f1 f7       	brne	.-4      	; 0x1922 <mp_ssd1306_init+0x32>
    1926:	00 c0       	rjmp	.+0      	; 0x1928 <mp_ssd1306_init+0x38>
    1928:	00 00       	nop
    192a:	ad 9a       	sbi	0x15, 5	; 21
    192c:	8e ea       	ldi	r24, 0xAE	; 174
    192e:	0e 94 25 0c 	call	0x184a	; 0x184a <mp_ssd1306_cmd>
    1932:	85 ed       	ldi	r24, 0xD5	; 213
    1934:	0e 94 25 0c 	call	0x184a	; 0x184a <mp_ssd1306_cmd>
    1938:	80 2f       	mov	r24, r16
    193a:	0e 94 25 0c 	call	0x184a	; 0x184a <mp_ssd1306_cmd>
    193e:	88 ea       	ldi	r24, 0xA8	; 168
    1940:	0e 94 25 0c 	call	0x184a	; 0x184a <mp_ssd1306_cmd>
    1944:	8f e3       	ldi	r24, 0x3F	; 63
    1946:	0e 94 25 0c 	call	0x184a	; 0x184a <mp_ssd1306_cmd>
    194a:	83 ed       	ldi	r24, 0xD3	; 211
    194c:	0e 94 25 0c 	call	0x184a	; 0x184a <mp_ssd1306_cmd>
    1950:	80 e0       	ldi	r24, 0x00	; 0
    1952:	0e 94 25 0c 	call	0x184a	; 0x184a <mp_ssd1306_cmd>
    1956:	80 e4       	ldi	r24, 0x40	; 64
    1958:	0e 94 25 0c 	call	0x184a	; 0x184a <mp_ssd1306_cmd>
    195c:	8d e8       	ldi	r24, 0x8D	; 141
    195e:	0e 94 25 0c 	call	0x184a	; 0x184a <mp_ssd1306_cmd>
    1962:	11 30       	cpi	r17, 0x01	; 1
    1964:	11 f4       	brne	.+4      	; 0x196a <mp_ssd1306_init+0x7a>
    1966:	80 e1       	ldi	r24, 0x10	; 16
    1968:	01 c0       	rjmp	.+2      	; 0x196c <mp_ssd1306_init+0x7c>
    196a:	84 e1       	ldi	r24, 0x14	; 20
    196c:	0e 94 25 0c 	call	0x184a	; 0x184a <mp_ssd1306_cmd>
    1970:	80 e2       	ldi	r24, 0x20	; 32
    1972:	0e 94 25 0c 	call	0x184a	; 0x184a <mp_ssd1306_cmd>
    1976:	80 e0       	ldi	r24, 0x00	; 0
    1978:	0e 94 25 0c 	call	0x184a	; 0x184a <mp_ssd1306_cmd>
    197c:	81 ea       	ldi	r24, 0xA1	; 161
    197e:	0e 94 25 0c 	call	0x184a	; 0x184a <mp_ssd1306_cmd>
    1982:	88 ec       	ldi	r24, 0xC8	; 200
    1984:	0e 94 25 0c 	call	0x184a	; 0x184a <mp_ssd1306_cmd>
    1988:	8a ed       	ldi	r24, 0xDA	; 218
    198a:	0e 94 25 0c 	call	0x184a	; 0x184a <mp_ssd1306_cmd>
    198e:	82 e1       	ldi	r24, 0x12	; 18
    1990:	0e 94 25 0c 	call	0x184a	; 0x184a <mp_ssd1306_cmd>
    1994:	81 e8       	ldi	r24, 0x81	; 129
    1996:	0e 94 25 0c 	call	0x184a	; 0x184a <mp_ssd1306_cmd>
    199a:	11 30       	cpi	r17, 0x01	; 1
    199c:	11 f4       	brne	.+4      	; 0x19a2 <mp_ssd1306_init+0xb2>
    199e:	8f e9       	ldi	r24, 0x9F	; 159
    19a0:	01 c0       	rjmp	.+2      	; 0x19a4 <mp_ssd1306_init+0xb4>
    19a2:	8f ec       	ldi	r24, 0xCF	; 207
    19a4:	0e 94 25 0c 	call	0x184a	; 0x184a <mp_ssd1306_cmd>
    19a8:	89 ed       	ldi	r24, 0xD9	; 217
    19aa:	0e 94 25 0c 	call	0x184a	; 0x184a <mp_ssd1306_cmd>
    19ae:	11 30       	cpi	r17, 0x01	; 1
    19b0:	11 f4       	brne	.+4      	; 0x19b6 <mp_ssd1306_init+0xc6>
    19b2:	82 e2       	ldi	r24, 0x22	; 34
    19b4:	01 c0       	rjmp	.+2      	; 0x19b8 <mp_ssd1306_init+0xc8>
    19b6:	81 ef       	ldi	r24, 0xF1	; 241
    19b8:	0e 94 25 0c 	call	0x184a	; 0x184a <mp_ssd1306_cmd>
    19bc:	88 ea       	ldi	r24, 0xA8	; 168
    19be:	0e 94 25 0c 	call	0x184a	; 0x184a <mp_ssd1306_cmd>
    19c2:	8f e3       	ldi	r24, 0x3F	; 63
    19c4:	0e 94 25 0c 	call	0x184a	; 0x184a <mp_ssd1306_cmd>
    19c8:	8a ed       	ldi	r24, 0xDA	; 218
    19ca:	0e 94 25 0c 	call	0x184a	; 0x184a <mp_ssd1306_cmd>
    19ce:	82 e1       	ldi	r24, 0x12	; 18
    19d0:	0e 94 25 0c 	call	0x184a	; 0x184a <mp_ssd1306_cmd>
    19d4:	8b ed       	ldi	r24, 0xDB	; 219
    19d6:	0e 94 25 0c 	call	0x184a	; 0x184a <mp_ssd1306_cmd>
    19da:	80 e4       	ldi	r24, 0x40	; 64
    19dc:	0e 94 25 0c 	call	0x184a	; 0x184a <mp_ssd1306_cmd>
    19e0:	84 ea       	ldi	r24, 0xA4	; 164
    19e2:	0e 94 25 0c 	call	0x184a	; 0x184a <mp_ssd1306_cmd>
    19e6:	86 ea       	ldi	r24, 0xA6	; 166
    19e8:	0e 94 25 0c 	call	0x184a	; 0x184a <mp_ssd1306_cmd>
    19ec:	8f ea       	ldi	r24, 0xAF	; 175
    19ee:	0e 94 25 0c 	call	0x184a	; 0x184a <mp_ssd1306_cmd>
    19f2:	0f 90       	pop	r0
    19f4:	df 91       	pop	r29
    19f6:	cf 91       	pop	r28
    19f8:	1f 91       	pop	r17
    19fa:	0f 91       	pop	r16
    19fc:	0c 94 2b 0c 	jmp	0x1856	; 0x1856 <mp_ssd1306_display>

00001a00 <mp_ssd1306_refresh_pages>:
    1a00:	af 92       	push	r10
    1a02:	bf 92       	push	r11
    1a04:	cf 92       	push	r12
    1a06:	df 92       	push	r13
    1a08:	ef 92       	push	r14
    1a0a:	ff 92       	push	r15
    1a0c:	0f 93       	push	r16
    1a0e:	1f 93       	push	r17
    1a10:	cf 93       	push	r28
    1a12:	df 93       	push	r29
    1a14:	00 d0       	rcall	.+0      	; 0x1a16 <mp_ssd1306_refresh_pages+0x16>
    1a16:	cd b7       	in	r28, 0x3d	; 61
    1a18:	de b7       	in	r29, 0x3e	; 62
    1a1a:	f4 2e       	mov	r15, r20
    1a1c:	f2 94       	swap	r15
    1a1e:	7f e0       	ldi	r23, 0x0F	; 15
    1a20:	f7 22       	and	r15, r23
    1a22:	90 e1       	ldi	r25, 0x10	; 16
    1a24:	f9 2a       	or	r15, r25
    1a26:	06 2f       	mov	r16, r22
    1a28:	10 e0       	ldi	r17, 0x00	; 0
    1a2a:	08 0f       	add	r16, r24
    1a2c:	11 1d       	adc	r17, r1
    1a2e:	ef e0       	ldi	r30, 0x0F	; 15
    1a30:	de 2e       	mov	r13, r30
    1a32:	d4 22       	and	r13, r20
    1a34:	f0 eb       	ldi	r31, 0xB0	; 176
    1a36:	ef 2e       	mov	r14, r31
    1a38:	e6 0e       	add	r14, r22
    1a3a:	c4 2e       	mov	r12, r20
    1a3c:	c3 94       	inc	r12
    1a3e:	21 c0       	rjmp	.+66     	; 0x1a82 <mp_ssd1306_refresh_pages+0x82>
    1a40:	8d 2d       	mov	r24, r13
    1a42:	2a 83       	std	Y+2, r18	; 0x02
    1a44:	49 83       	std	Y+1, r20	; 0x01
    1a46:	0e 94 25 0c 	call	0x184a	; 0x184a <mp_ssd1306_cmd>
    1a4a:	8f 2d       	mov	r24, r15
    1a4c:	0e 94 25 0c 	call	0x184a	; 0x184a <mp_ssd1306_cmd>
    1a50:	8e 2d       	mov	r24, r14
    1a52:	0e 94 25 0c 	call	0x184a	; 0x184a <mp_ssd1306_cmd>
    1a56:	ac 9a       	sbi	0x15, 4	; 21
    1a58:	2a 81       	ldd	r18, Y+2	; 0x02
    1a5a:	49 81       	ldd	r20, Y+1	; 0x01
    1a5c:	42 17       	cp	r20, r18
    1a5e:	80 f4       	brcc	.+32     	; 0x1a80 <mp_ssd1306_refresh_pages+0x80>
    1a60:	85 01       	movw	r16, r10
    1a62:	16 95       	lsr	r17
    1a64:	10 2f       	mov	r17, r16
    1a66:	00 27       	eor	r16, r16
    1a68:	17 95       	ror	r17
    1a6a:	07 95       	ror	r16
    1a6c:	04 0f       	add	r16, r20
    1a6e:	11 1d       	adc	r17, r1
    1a70:	0a 58       	subi	r16, 0x8A	; 138
    1a72:	1f 4f       	sbci	r17, 0xFF	; 255
    1a74:	f8 01       	movw	r30, r16
    1a76:	81 91       	ld	r24, Z+
    1a78:	8f 01       	movw	r16, r30
    1a7a:	0e 94 0e 0c 	call	0x181c	; 0x181c <SPIwrite>
    1a7e:	fa cf       	rjmp	.-12     	; 0x1a74 <mp_ssd1306_refresh_pages+0x74>
    1a80:	8c 2d       	mov	r24, r12
    1a82:	a8 2e       	mov	r10, r24
    1a84:	b1 2c       	mov	r11, r1
    1a86:	a0 16       	cp	r10, r16
    1a88:	b1 06       	cpc	r11, r17
    1a8a:	d4 f2       	brlt	.-76     	; 0x1a40 <mp_ssd1306_refresh_pages+0x40>
    1a8c:	0f 90       	pop	r0
    1a8e:	0f 90       	pop	r0
    1a90:	df 91       	pop	r29
    1a92:	cf 91       	pop	r28
    1a94:	1f 91       	pop	r17
    1a96:	0f 91       	pop	r16
    1a98:	ff 90       	pop	r15
    1a9a:	ef 90       	pop	r14
    1a9c:	df 90       	pop	r13
    1a9e:	cf 90       	pop	r12
    1aa0:	bf 90       	pop	r11
    1aa2:	af 90       	pop	r10
    1aa4:	08 95       	ret

00001aa6 <crc8>:
    1aa6:	fc 01       	movw	r30, r24
    1aa8:	68 0f       	add	r22, r24
    1aaa:	79 1f       	adc	r23, r25
    1aac:	80 e0       	ldi	r24, 0x00	; 0
    1aae:	48 e1       	ldi	r20, 0x18	; 24
    1ab0:	0f c0       	rjmp	.+30     	; 0x1ad0 <crc8+0x2a>
    1ab2:	21 91       	ld	r18, Z+
    1ab4:	98 e0       	ldi	r25, 0x08	; 8
    1ab6:	32 2f       	mov	r19, r18
    1ab8:	38 27       	eor	r19, r24
    1aba:	53 2f       	mov	r21, r19
    1abc:	51 70       	andi	r21, 0x01	; 1
    1abe:	30 fd       	sbrc	r19, 0
    1ac0:	84 27       	eor	r24, r20
    1ac2:	86 95       	lsr	r24
    1ac4:	51 30       	cpi	r21, 0x01	; 1
    1ac6:	09 f4       	brne	.+2      	; 0x1aca <crc8+0x24>
    1ac8:	80 68       	ori	r24, 0x80	; 128
    1aca:	26 95       	lsr	r18
    1acc:	91 50       	subi	r25, 0x01	; 1
    1ace:	99 f7       	brne	.-26     	; 0x1ab6 <crc8+0x10>
    1ad0:	e6 17       	cp	r30, r22
    1ad2:	f7 07       	cpc	r31, r23
    1ad4:	71 f7       	brne	.-36     	; 0x1ab2 <crc8+0xc>
    1ad6:	08 95       	ret

00001ad8 <DS18X20_meas_to_cel>:
    1ad8:	0f 93       	push	r16
    1ada:	1f 93       	push	r17
    1adc:	cf 93       	push	r28
    1ade:	df 93       	push	r29
    1ae0:	cd b7       	in	r28, 0x3d	; 61
    1ae2:	de b7       	in	r29, 0x3e	; 62
    1ae4:	60 97       	sbiw	r28, 0x10	; 16
    1ae6:	0f b6       	in	r0, 0x3f	; 63
    1ae8:	f8 94       	cli
    1aea:	de bf       	out	0x3e, r29	; 62
    1aec:	0f be       	out	0x3f, r0	; 63
    1aee:	cd bf       	out	0x3d, r28	; 61
    1af0:	90 e1       	ldi	r25, 0x10	; 16
    1af2:	e0 e6       	ldi	r30, 0x60	; 96
    1af4:	f0 e0       	ldi	r31, 0x00	; 0
    1af6:	de 01       	movw	r26, r28
    1af8:	11 96       	adiw	r26, 0x01	; 1
    1afa:	01 90       	ld	r0, Z+
    1afc:	0d 92       	st	X+, r0
    1afe:	9a 95       	dec	r25
    1b00:	e1 f7       	brne	.-8      	; 0x1afa <DS18X20_meas_to_cel+0x22>
    1b02:	db 01       	movw	r26, r22
    1b04:	9c 91       	ld	r25, X
    1b06:	11 96       	adiw	r26, 0x01	; 1
    1b08:	fc 91       	ld	r31, X
    1b0a:	e0 e0       	ldi	r30, 0x00	; 0
    1b0c:	e9 2b       	or	r30, r25
    1b0e:	80 31       	cpi	r24, 0x10	; 16
    1b10:	79 f4       	brne	.+30     	; 0x1b30 <DS18X20_meas_to_cel+0x58>
    1b12:	df 01       	movw	r26, r30
    1b14:	ae 7f       	andi	r26, 0xFE	; 254
    1b16:	e3 e0       	ldi	r30, 0x03	; 3
    1b18:	aa 0f       	add	r26, r26
    1b1a:	bb 1f       	adc	r27, r27
    1b1c:	ea 95       	dec	r30
    1b1e:	e1 f7       	brne	.-8      	; 0x1b18 <DS18X20_meas_to_cel+0x40>
    1b20:	fb 01       	movw	r30, r22
    1b22:	96 81       	ldd	r25, Z+6	; 0x06
    1b24:	ec e0       	ldi	r30, 0x0C	; 12
    1b26:	f0 e0       	ldi	r31, 0x00	; 0
    1b28:	e9 1b       	sub	r30, r25
    1b2a:	f1 09       	sbc	r31, r1
    1b2c:	ea 0f       	add	r30, r26
    1b2e:	fb 1f       	adc	r31, r27
    1b30:	f7 ff       	sbrs	r31, 7
    1b32:	07 c0       	rjmp	.+14     	; 0x1b42 <DS18X20_meas_to_cel+0x6a>
    1b34:	91 e0       	ldi	r25, 0x01	; 1
    1b36:	da 01       	movw	r26, r20
    1b38:	9c 93       	st	X, r25
    1b3a:	f1 95       	neg	r31
    1b3c:	e1 95       	neg	r30
    1b3e:	f1 09       	sbc	r31, r1
    1b40:	02 c0       	rjmp	.+4      	; 0x1b46 <DS18X20_meas_to_cel+0x6e>
    1b42:	da 01       	movw	r26, r20
    1b44:	1c 92       	st	X, r1
    1b46:	88 32       	cpi	r24, 0x28	; 40
    1b48:	81 f4       	brne	.+32     	; 0x1b6a <DS18X20_meas_to_cel+0x92>
    1b4a:	db 01       	movw	r26, r22
    1b4c:	14 96       	adiw	r26, 0x04	; 4
    1b4e:	8c 91       	ld	r24, X
    1b50:	98 2f       	mov	r25, r24
    1b52:	90 76       	andi	r25, 0x60	; 96
    1b54:	90 36       	cpi	r25, 0x60	; 96
    1b56:	49 f0       	breq	.+18     	; 0x1b6a <DS18X20_meas_to_cel+0x92>
    1b58:	86 ff       	sbrs	r24, 6
    1b5a:	02 c0       	rjmp	.+4      	; 0x1b60 <DS18X20_meas_to_cel+0x88>
    1b5c:	ee 7f       	andi	r30, 0xFE	; 254
    1b5e:	05 c0       	rjmp	.+10     	; 0x1b6a <DS18X20_meas_to_cel+0x92>
    1b60:	85 ff       	sbrs	r24, 5
    1b62:	02 c0       	rjmp	.+4      	; 0x1b68 <DS18X20_meas_to_cel+0x90>
    1b64:	ec 7f       	andi	r30, 0xFC	; 252
    1b66:	01 c0       	rjmp	.+2      	; 0x1b6a <DS18X20_meas_to_cel+0x92>
    1b68:	e8 7f       	andi	r30, 0xF8	; 248
    1b6a:	cf 01       	movw	r24, r30
    1b6c:	44 e0       	ldi	r20, 0x04	; 4
    1b6e:	96 95       	lsr	r25
    1b70:	87 95       	ror	r24
    1b72:	4a 95       	dec	r20
    1b74:	e1 f7       	brne	.-8      	; 0x1b6e <DS18X20_meas_to_cel+0x96>
    1b76:	d9 01       	movw	r26, r18
    1b78:	8c 93       	st	X, r24
    1b7a:	ef 70       	andi	r30, 0x0F	; 15
    1b7c:	ff 27       	eor	r31, r31
    1b7e:	ec 0f       	add	r30, r28
    1b80:	fd 1f       	adc	r31, r29
    1b82:	81 81       	ldd	r24, Z+1	; 0x01
    1b84:	f8 01       	movw	r30, r16
    1b86:	80 83       	st	Z, r24
    1b88:	80 e0       	ldi	r24, 0x00	; 0
    1b8a:	60 96       	adiw	r28, 0x10	; 16
    1b8c:	0f b6       	in	r0, 0x3f	; 63
    1b8e:	f8 94       	cli
    1b90:	de bf       	out	0x3e, r29	; 62
    1b92:	0f be       	out	0x3f, r0	; 63
    1b94:	cd bf       	out	0x3d, r28	; 61
    1b96:	df 91       	pop	r29
    1b98:	cf 91       	pop	r28
    1b9a:	1f 91       	pop	r17
    1b9c:	0f 91       	pop	r16
    1b9e:	08 95       	ret

00001ba0 <DS18X20_temp_cmp>:
    1ba0:	88 23       	and	r24, r24
    1ba2:	19 f0       	breq	.+6      	; 0x1baa <DS18X20_temp_cmp+0xa>
    1ba4:	71 95       	neg	r23
    1ba6:	61 95       	neg	r22
    1ba8:	71 09       	sbc	r23, r1
    1baa:	44 23       	and	r20, r20
    1bac:	19 f0       	breq	.+6      	; 0x1bb4 <DS18X20_temp_cmp+0x14>
    1bae:	31 95       	neg	r19
    1bb0:	21 95       	neg	r18
    1bb2:	31 09       	sbc	r19, r1
    1bb4:	62 17       	cp	r22, r18
    1bb6:	73 07       	cpc	r23, r19
    1bb8:	4c f0       	brlt	.+18     	; 0x1bcc <DS18X20_temp_cmp+0x2c>
    1bba:	81 e0       	ldi	r24, 0x01	; 1
    1bbc:	90 e0       	ldi	r25, 0x00	; 0
    1bbe:	26 17       	cp	r18, r22
    1bc0:	37 07       	cpc	r19, r23
    1bc2:	14 f0       	brlt	.+4      	; 0x1bc8 <DS18X20_temp_cmp+0x28>
    1bc4:	80 e0       	ldi	r24, 0x00	; 0
    1bc6:	90 e0       	ldi	r25, 0x00	; 0
    1bc8:	9c 01       	movw	r18, r24
    1bca:	02 c0       	rjmp	.+4      	; 0x1bd0 <DS18X20_temp_cmp+0x30>
    1bcc:	2f ef       	ldi	r18, 0xFF	; 255
    1bce:	3f ef       	ldi	r19, 0xFF	; 255
    1bd0:	c9 01       	movw	r24, r18
    1bd2:	08 95       	ret

00001bd4 <DS18X20_find_sensor>:
    1bd4:	0f 93       	push	r16
    1bd6:	1f 93       	push	r17
    1bd8:	cf 93       	push	r28
    1bda:	df 93       	push	r29
    1bdc:	ec 01       	movw	r28, r24
    1bde:	8b 01       	movw	r16, r22
    1be0:	b8 01       	movw	r22, r16
    1be2:	88 81       	ld	r24, Y
    1be4:	0e 94 86 0f 	call	0x1f0c	; 0x1f0c <ow_rom_search>
    1be8:	88 83       	st	Y, r24
    1bea:	81 50       	subi	r24, 0x01	; 1
    1bec:	8d 3f       	cpi	r24, 0xFD	; 253
    1bee:	30 f4       	brcc	.+12     	; 0x1bfc <DS18X20_find_sensor+0x28>
    1bf0:	f8 01       	movw	r30, r16
    1bf2:	80 81       	ld	r24, Z
    1bf4:	88 32       	cpi	r24, 0x28	; 40
    1bf6:	11 f0       	breq	.+4      	; 0x1bfc <DS18X20_find_sensor+0x28>
    1bf8:	80 31       	cpi	r24, 0x10	; 16
    1bfa:	91 f7       	brne	.-28     	; 0x1be0 <DS18X20_find_sensor+0xc>
    1bfc:	df 91       	pop	r29
    1bfe:	cf 91       	pop	r28
    1c00:	1f 91       	pop	r17
    1c02:	0f 91       	pop	r16
    1c04:	08 95       	ret

00001c06 <search_sensors>:
    1c06:	ff 92       	push	r15
    1c08:	0f 93       	push	r16
    1c0a:	1f 93       	push	r17
    1c0c:	cf 93       	push	r28
    1c0e:	df 93       	push	r29
    1c10:	cd b7       	in	r28, 0x3d	; 61
    1c12:	de b7       	in	r29, 0x3e	; 62
    1c14:	29 97       	sbiw	r28, 0x09	; 9
    1c16:	0f b6       	in	r0, 0x3f	; 63
    1c18:	f8 94       	cli
    1c1a:	de bf       	out	0x3e, r29	; 62
    1c1c:	0f be       	out	0x3f, r0	; 63
    1c1e:	cd bf       	out	0x3d, r28	; 61
    1c20:	8f ef       	ldi	r24, 0xFF	; 255
    1c22:	89 87       	std	Y+9, r24	; 0x09
    1c24:	0a e7       	ldi	r16, 0x7A	; 122
    1c26:	14 e0       	ldi	r17, 0x04	; 4
    1c28:	f1 2c       	mov	r15, r1
    1c2a:	1d c0       	rjmp	.+58     	; 0x1c66 <search_sensors+0x60>
    1c2c:	be 01       	movw	r22, r28
    1c2e:	6f 5f       	subi	r22, 0xFF	; 255
    1c30:	7f 4f       	sbci	r23, 0xFF	; 255
    1c32:	ce 01       	movw	r24, r28
    1c34:	09 96       	adiw	r24, 0x09	; 9
    1c36:	0e 94 ea 0d 	call	0x1bd4	; 0x1bd4 <DS18X20_find_sensor>
    1c3a:	89 85       	ldd	r24, Y+9	; 0x09
    1c3c:	8f 3f       	cpi	r24, 0xFF	; 255
    1c3e:	c9 f0       	breq	.+50     	; 0x1c72 <search_sensors+0x6c>
    1c40:	8e 3f       	cpi	r24, 0xFE	; 254
    1c42:	b9 f0       	breq	.+46     	; 0x1c72 <search_sensors+0x6c>
    1c44:	fe 01       	movw	r30, r28
    1c46:	31 96       	adiw	r30, 0x01	; 1
    1c48:	20 e0       	ldi	r18, 0x00	; 0
    1c4a:	30 e0       	ldi	r19, 0x00	; 0
    1c4c:	81 91       	ld	r24, Z+
    1c4e:	d8 01       	movw	r26, r16
    1c50:	a2 0f       	add	r26, r18
    1c52:	b3 1f       	adc	r27, r19
    1c54:	8c 93       	st	X, r24
    1c56:	2f 5f       	subi	r18, 0xFF	; 255
    1c58:	3f 4f       	sbci	r19, 0xFF	; 255
    1c5a:	28 30       	cpi	r18, 0x08	; 8
    1c5c:	31 05       	cpc	r19, r1
    1c5e:	b1 f7       	brne	.-20     	; 0x1c4c <search_sensors+0x46>
    1c60:	f3 94       	inc	r15
    1c62:	08 5f       	subi	r16, 0xF8	; 248
    1c64:	1f 4f       	sbci	r17, 0xFF	; 255
    1c66:	89 85       	ldd	r24, Y+9	; 0x09
    1c68:	88 23       	and	r24, r24
    1c6a:	19 f0       	breq	.+6      	; 0x1c72 <search_sensors+0x6c>
    1c6c:	84 e0       	ldi	r24, 0x04	; 4
    1c6e:	f8 12       	cpse	r15, r24
    1c70:	dd cf       	rjmp	.-70     	; 0x1c2c <search_sensors+0x26>
    1c72:	8f 2d       	mov	r24, r15
    1c74:	29 96       	adiw	r28, 0x09	; 9
    1c76:	0f b6       	in	r0, 0x3f	; 63
    1c78:	f8 94       	cli
    1c7a:	de bf       	out	0x3e, r29	; 62
    1c7c:	0f be       	out	0x3f, r0	; 63
    1c7e:	cd bf       	out	0x3d, r28	; 61
    1c80:	df 91       	pop	r29
    1c82:	cf 91       	pop	r28
    1c84:	1f 91       	pop	r17
    1c86:	0f 91       	pop	r16
    1c88:	ff 90       	pop	r15
    1c8a:	08 95       	ret

00001c8c <DS18X20_get_power_status>:
    1c8c:	cf 93       	push	r28
    1c8e:	df 93       	push	r29
    1c90:	ec 01       	movw	r28, r24
    1c92:	0e 94 42 0f 	call	0x1e84	; 0x1e84 <ow_reset>
    1c96:	81 11       	cpse	r24, r1
    1c98:	0f c0       	rjmp	.+30     	; 0x1cb8 <DS18X20_get_power_status+0x2c>
    1c9a:	be 01       	movw	r22, r28
    1c9c:	84 eb       	ldi	r24, 0xB4	; 180
    1c9e:	0e 94 d2 0f 	call	0x1fa4	; 0x1fa4 <ow_command>
    1ca2:	81 e0       	ldi	r24, 0x01	; 1
    1ca4:	0e 94 5e 0f 	call	0x1ebc	; 0x1ebc <ow_bit_io>
    1ca8:	c8 2f       	mov	r28, r24
    1caa:	0e 94 42 0f 	call	0x1e84	; 0x1e84 <ow_reset>
    1cae:	81 e0       	ldi	r24, 0x01	; 1
    1cb0:	c1 11       	cpse	r28, r1
    1cb2:	03 c0       	rjmp	.+6      	; 0x1cba <DS18X20_get_power_status+0x2e>
    1cb4:	80 e0       	ldi	r24, 0x00	; 0
    1cb6:	01 c0       	rjmp	.+2      	; 0x1cba <DS18X20_get_power_status+0x2e>
    1cb8:	81 e0       	ldi	r24, 0x01	; 1
    1cba:	df 91       	pop	r29
    1cbc:	cf 91       	pop	r28
    1cbe:	08 95       	ret

00001cc0 <DS18X20_start_meas>:
    1cc0:	1f 93       	push	r17
    1cc2:	cf 93       	push	r28
    1cc4:	df 93       	push	r29
    1cc6:	18 2f       	mov	r17, r24
    1cc8:	eb 01       	movw	r28, r22
    1cca:	0e 94 42 0f 	call	0x1e84	; 0x1e84 <ow_reset>
    1cce:	81 11       	cpse	r24, r1
    1cd0:	0d c0       	rjmp	.+26     	; 0x1cec <DS18X20_start_meas+0x2c>
    1cd2:	0e 94 39 0f 	call	0x1e72	; 0x1e72 <ow_input_pin_state>
    1cd6:	88 23       	and	r24, r24
    1cd8:	59 f0       	breq	.+22     	; 0x1cf0 <DS18X20_start_meas+0x30>
    1cda:	be 01       	movw	r22, r28
    1cdc:	84 e4       	ldi	r24, 0x44	; 68
    1cde:	0e 94 d2 0f 	call	0x1fa4	; 0x1fa4 <ow_command>
    1ce2:	11 30       	cpi	r17, 0x01	; 1
    1ce4:	39 f0       	breq	.+14     	; 0x1cf4 <DS18X20_start_meas+0x34>
    1ce6:	0e 94 3c 0f 	call	0x1e78	; 0x1e78 <ow_parasite_enable>
    1cea:	04 c0       	rjmp	.+8      	; 0x1cf4 <DS18X20_start_meas+0x34>
    1cec:	81 e0       	ldi	r24, 0x01	; 1
    1cee:	03 c0       	rjmp	.+6      	; 0x1cf6 <DS18X20_start_meas+0x36>
    1cf0:	82 e0       	ldi	r24, 0x02	; 2
    1cf2:	01 c0       	rjmp	.+2      	; 0x1cf6 <DS18X20_start_meas+0x36>
    1cf4:	80 e0       	ldi	r24, 0x00	; 0
    1cf6:	df 91       	pop	r29
    1cf8:	cf 91       	pop	r28
    1cfa:	1f 91       	pop	r17
    1cfc:	08 95       	ret

00001cfe <DS18X20_read_meas>:
    1cfe:	6f 92       	push	r6
    1d00:	7f 92       	push	r7
    1d02:	8f 92       	push	r8
    1d04:	9f 92       	push	r9
    1d06:	af 92       	push	r10
    1d08:	bf 92       	push	r11
    1d0a:	cf 92       	push	r12
    1d0c:	df 92       	push	r13
    1d0e:	ef 92       	push	r14
    1d10:	ff 92       	push	r15
    1d12:	0f 93       	push	r16
    1d14:	1f 93       	push	r17
    1d16:	cf 93       	push	r28
    1d18:	df 93       	push	r29
    1d1a:	cd b7       	in	r28, 0x3d	; 61
    1d1c:	de b7       	in	r29, 0x3e	; 62
    1d1e:	29 97       	sbiw	r28, 0x09	; 9
    1d20:	0f b6       	in	r0, 0x3f	; 63
    1d22:	f8 94       	cli
    1d24:	de bf       	out	0x3e, r29	; 62
    1d26:	0f be       	out	0x3f, r0	; 63
    1d28:	cd bf       	out	0x3d, r28	; 61
    1d2a:	6c 01       	movw	r12, r24
    1d2c:	5b 01       	movw	r10, r22
    1d2e:	4a 01       	movw	r8, r20
    1d30:	89 01       	movw	r16, r18
    1d32:	0e 94 42 0f 	call	0x1e84	; 0x1e84 <ow_reset>
    1d36:	81 11       	cpse	r24, r1
    1d38:	28 c0       	rjmp	.+80     	; 0x1d8a <DS18X20_read_meas+0x8c>
    1d3a:	b6 01       	movw	r22, r12
    1d3c:	8e eb       	ldi	r24, 0xBE	; 190
    1d3e:	0e 94 d2 0f 	call	0x1fa4	; 0x1fa4 <ow_command>
    1d42:	ee 24       	eor	r14, r14
    1d44:	e3 94       	inc	r14
    1d46:	f1 2c       	mov	r15, r1
    1d48:	ec 0e       	add	r14, r28
    1d4a:	fd 1e       	adc	r15, r29
    1d4c:	3e 01       	movw	r6, r28
    1d4e:	8a e0       	ldi	r24, 0x0A	; 10
    1d50:	68 0e       	add	r6, r24
    1d52:	71 1c       	adc	r7, r1
    1d54:	0e 94 83 0f 	call	0x1f06	; 0x1f06 <ow_byte_rd>
    1d58:	f7 01       	movw	r30, r14
    1d5a:	81 93       	st	Z+, r24
    1d5c:	7f 01       	movw	r14, r30
    1d5e:	e6 15       	cp	r30, r6
    1d60:	f7 05       	cpc	r31, r7
    1d62:	c1 f7       	brne	.-16     	; 0x1d54 <DS18X20_read_meas+0x56>
    1d64:	69 e0       	ldi	r22, 0x09	; 9
    1d66:	70 e0       	ldi	r23, 0x00	; 0
    1d68:	ce 01       	movw	r24, r28
    1d6a:	01 96       	adiw	r24, 0x01	; 1
    1d6c:	0e 94 53 0d 	call	0x1aa6	; 0x1aa6 <crc8>
    1d70:	81 11       	cpse	r24, r1
    1d72:	0d c0       	rjmp	.+26     	; 0x1d8e <DS18X20_read_meas+0x90>
    1d74:	94 01       	movw	r18, r8
    1d76:	a5 01       	movw	r20, r10
    1d78:	be 01       	movw	r22, r28
    1d7a:	6f 5f       	subi	r22, 0xFF	; 255
    1d7c:	7f 4f       	sbci	r23, 0xFF	; 255
    1d7e:	f6 01       	movw	r30, r12
    1d80:	80 81       	ld	r24, Z
    1d82:	0e 94 6c 0d 	call	0x1ad8	; 0x1ad8 <DS18X20_meas_to_cel>
    1d86:	80 e0       	ldi	r24, 0x00	; 0
    1d88:	03 c0       	rjmp	.+6      	; 0x1d90 <DS18X20_read_meas+0x92>
    1d8a:	81 e0       	ldi	r24, 0x01	; 1
    1d8c:	01 c0       	rjmp	.+2      	; 0x1d90 <DS18X20_read_meas+0x92>
    1d8e:	83 e0       	ldi	r24, 0x03	; 3
    1d90:	29 96       	adiw	r28, 0x09	; 9
    1d92:	0f b6       	in	r0, 0x3f	; 63
    1d94:	f8 94       	cli
    1d96:	de bf       	out	0x3e, r29	; 62
    1d98:	0f be       	out	0x3f, r0	; 63
    1d9a:	cd bf       	out	0x3d, r28	; 61
    1d9c:	df 91       	pop	r29
    1d9e:	cf 91       	pop	r28
    1da0:	1f 91       	pop	r17
    1da2:	0f 91       	pop	r16
    1da4:	ff 90       	pop	r15
    1da6:	ef 90       	pop	r14
    1da8:	df 90       	pop	r13
    1daa:	cf 90       	pop	r12
    1dac:	bf 90       	pop	r11
    1dae:	af 90       	pop	r10
    1db0:	9f 90       	pop	r9
    1db2:	8f 90       	pop	r8
    1db4:	7f 90       	pop	r7
    1db6:	6f 90       	pop	r6
    1db8:	08 95       	ret

00001dba <DS18X20_read_meas_single>:
    1dba:	7f 92       	push	r7
    1dbc:	8f 92       	push	r8
    1dbe:	9f 92       	push	r9
    1dc0:	af 92       	push	r10
    1dc2:	bf 92       	push	r11
    1dc4:	cf 92       	push	r12
    1dc6:	df 92       	push	r13
    1dc8:	ef 92       	push	r14
    1dca:	ff 92       	push	r15
    1dcc:	0f 93       	push	r16
    1dce:	1f 93       	push	r17
    1dd0:	cf 93       	push	r28
    1dd2:	df 93       	push	r29
    1dd4:	cd b7       	in	r28, 0x3d	; 61
    1dd6:	de b7       	in	r29, 0x3e	; 62
    1dd8:	29 97       	sbiw	r28, 0x09	; 9
    1dda:	0f b6       	in	r0, 0x3f	; 63
    1ddc:	f8 94       	cli
    1dde:	de bf       	out	0x3e, r29	; 62
    1de0:	0f be       	out	0x3f, r0	; 63
    1de2:	cd bf       	out	0x3d, r28	; 61
    1de4:	78 2e       	mov	r7, r24
    1de6:	6b 01       	movw	r12, r22
    1de8:	5a 01       	movw	r10, r20
    1dea:	89 01       	movw	r16, r18
    1dec:	0e 94 42 0f 	call	0x1e84	; 0x1e84 <ow_reset>
    1df0:	81 11       	cpse	r24, r1
    1df2:	28 c0       	rjmp	.+80     	; 0x1e44 <DS18X20_read_meas_single+0x8a>
    1df4:	60 e0       	ldi	r22, 0x00	; 0
    1df6:	70 e0       	ldi	r23, 0x00	; 0
    1df8:	8e eb       	ldi	r24, 0xBE	; 190
    1dfa:	0e 94 d2 0f 	call	0x1fa4	; 0x1fa4 <ow_command>
    1dfe:	ee 24       	eor	r14, r14
    1e00:	e3 94       	inc	r14
    1e02:	f1 2c       	mov	r15, r1
    1e04:	ec 0e       	add	r14, r28
    1e06:	fd 1e       	adc	r15, r29
    1e08:	4e 01       	movw	r8, r28
    1e0a:	8a e0       	ldi	r24, 0x0A	; 10
    1e0c:	88 0e       	add	r8, r24
    1e0e:	91 1c       	adc	r9, r1
    1e10:	0e 94 83 0f 	call	0x1f06	; 0x1f06 <ow_byte_rd>
    1e14:	f7 01       	movw	r30, r14
    1e16:	81 93       	st	Z+, r24
    1e18:	7f 01       	movw	r14, r30
    1e1a:	e8 15       	cp	r30, r8
    1e1c:	f9 05       	cpc	r31, r9
    1e1e:	c1 f7       	brne	.-16     	; 0x1e10 <DS18X20_read_meas_single+0x56>
    1e20:	69 e0       	ldi	r22, 0x09	; 9
    1e22:	70 e0       	ldi	r23, 0x00	; 0
    1e24:	ce 01       	movw	r24, r28
    1e26:	01 96       	adiw	r24, 0x01	; 1
    1e28:	0e 94 53 0d 	call	0x1aa6	; 0x1aa6 <crc8>
    1e2c:	81 11       	cpse	r24, r1
    1e2e:	0c c0       	rjmp	.+24     	; 0x1e48 <DS18X20_read_meas_single+0x8e>
    1e30:	95 01       	movw	r18, r10
    1e32:	a6 01       	movw	r20, r12
    1e34:	be 01       	movw	r22, r28
    1e36:	6f 5f       	subi	r22, 0xFF	; 255
    1e38:	7f 4f       	sbci	r23, 0xFF	; 255
    1e3a:	87 2d       	mov	r24, r7
    1e3c:	0e 94 6c 0d 	call	0x1ad8	; 0x1ad8 <DS18X20_meas_to_cel>
    1e40:	80 e0       	ldi	r24, 0x00	; 0
    1e42:	03 c0       	rjmp	.+6      	; 0x1e4a <DS18X20_read_meas_single+0x90>
    1e44:	81 e0       	ldi	r24, 0x01	; 1
    1e46:	01 c0       	rjmp	.+2      	; 0x1e4a <DS18X20_read_meas_single+0x90>
    1e48:	83 e0       	ldi	r24, 0x03	; 3
    1e4a:	29 96       	adiw	r28, 0x09	; 9
    1e4c:	0f b6       	in	r0, 0x3f	; 63
    1e4e:	f8 94       	cli
    1e50:	de bf       	out	0x3e, r29	; 62
    1e52:	0f be       	out	0x3f, r0	; 63
    1e54:	cd bf       	out	0x3d, r28	; 61
    1e56:	df 91       	pop	r29
    1e58:	cf 91       	pop	r28
    1e5a:	1f 91       	pop	r17
    1e5c:	0f 91       	pop	r16
    1e5e:	ff 90       	pop	r15
    1e60:	ef 90       	pop	r14
    1e62:	df 90       	pop	r13
    1e64:	cf 90       	pop	r12
    1e66:	bf 90       	pop	r11
    1e68:	af 90       	pop	r10
    1e6a:	9f 90       	pop	r9
    1e6c:	8f 90       	pop	r8
    1e6e:	7f 90       	pop	r7
    1e70:	08 95       	ret

00001e72 <ow_input_pin_state>:
    1e72:	86 b3       	in	r24, 0x16	; 22
    1e74:	82 70       	andi	r24, 0x02	; 2
    1e76:	08 95       	ret

00001e78 <ow_parasite_enable>:
    1e78:	c1 9a       	sbi	0x18, 1	; 24
    1e7a:	b9 9a       	sbi	0x17, 1	; 23
    1e7c:	08 95       	ret

00001e7e <ow_parasite_disable>:
    1e7e:	c1 98       	cbi	0x18, 1	; 24
    1e80:	b9 98       	cbi	0x17, 1	; 23
    1e82:	08 95       	ret

00001e84 <ow_reset>:
    1e84:	c1 98       	cbi	0x18, 1	; 24
    1e86:	b9 9a       	sbi	0x17, 1	; 23
    1e88:	8f eb       	ldi	r24, 0xBF	; 191
    1e8a:	93 e0       	ldi	r25, 0x03	; 3
    1e8c:	01 97       	sbiw	r24, 0x01	; 1
    1e8e:	f1 f7       	brne	.-4      	; 0x1e8c <ow_reset+0x8>
    1e90:	00 c0       	rjmp	.+0      	; 0x1e92 <ow_reset+0xe>
    1e92:	00 00       	nop
    1e94:	9f b7       	in	r25, 0x3f	; 63
    1e96:	f8 94       	cli
    1e98:	b9 98       	cbi	0x17, 1	; 23
    1e9a:	e0 eb       	ldi	r30, 0xB0	; 176
    1e9c:	ea 95       	dec	r30
    1e9e:	f1 f7       	brne	.-4      	; 0x1e9c <ow_reset+0x18>
    1ea0:	86 b3       	in	r24, 0x16	; 22
    1ea2:	9f bf       	out	0x3f, r25	; 63
    1ea4:	eb e3       	ldi	r30, 0x3B	; 59
    1ea6:	f3 e0       	ldi	r31, 0x03	; 3
    1ea8:	31 97       	sbiw	r30, 0x01	; 1
    1eaa:	f1 f7       	brne	.-4      	; 0x1ea8 <ow_reset+0x24>
    1eac:	00 c0       	rjmp	.+0      	; 0x1eae <ow_reset+0x2a>
    1eae:	00 00       	nop
    1eb0:	b1 9b       	sbis	0x16, 1	; 22
    1eb2:	02 c0       	rjmp	.+4      	; 0x1eb8 <ow_reset+0x34>
    1eb4:	82 70       	andi	r24, 0x02	; 2
    1eb6:	08 95       	ret
    1eb8:	81 e0       	ldi	r24, 0x01	; 1
    1eba:	08 95       	ret

00001ebc <ow_bit_io>:
    1ebc:	9f b7       	in	r25, 0x3f	; 63
    1ebe:	f8 94       	cli
    1ec0:	b9 9a       	sbi	0x17, 1	; 23
    1ec2:	22 e0       	ldi	r18, 0x02	; 2
    1ec4:	2a 95       	dec	r18
    1ec6:	f1 f7       	brne	.-4      	; 0x1ec4 <ow_bit_io+0x8>
    1ec8:	00 c0       	rjmp	.+0      	; 0x1eca <ow_bit_io+0xe>
    1eca:	81 11       	cpse	r24, r1
    1ecc:	b9 98       	cbi	0x17, 1	; 23
    1ece:	28 e2       	ldi	r18, 0x28	; 40
    1ed0:	2a 95       	dec	r18
    1ed2:	f1 f7       	brne	.-4      	; 0x1ed0 <ow_bit_io+0x14>
    1ed4:	b1 9b       	sbis	0x16, 1	; 22
    1ed6:	80 e0       	ldi	r24, 0x00	; 0
    1ed8:	28 e7       	ldi	r18, 0x78	; 120
    1eda:	2a 95       	dec	r18
    1edc:	f1 f7       	brne	.-4      	; 0x1eda <ow_bit_io+0x1e>
    1ede:	b9 98       	cbi	0x17, 1	; 23
    1ee0:	9f bf       	out	0x3f, r25	; 63
    1ee2:	08 95       	ret

00001ee4 <ow_byte_wr>:
    1ee4:	cf 93       	push	r28
    1ee6:	df 93       	push	r29
    1ee8:	c8 2f       	mov	r28, r24
    1eea:	d8 e0       	ldi	r29, 0x08	; 8
    1eec:	8c 2f       	mov	r24, r28
    1eee:	81 70       	andi	r24, 0x01	; 1
    1ef0:	0e 94 5e 0f 	call	0x1ebc	; 0x1ebc <ow_bit_io>
    1ef4:	c6 95       	lsr	r28
    1ef6:	81 11       	cpse	r24, r1
    1ef8:	c0 68       	ori	r28, 0x80	; 128
    1efa:	d1 50       	subi	r29, 0x01	; 1
    1efc:	b9 f7       	brne	.-18     	; 0x1eec <ow_byte_wr+0x8>
    1efe:	8c 2f       	mov	r24, r28
    1f00:	df 91       	pop	r29
    1f02:	cf 91       	pop	r28
    1f04:	08 95       	ret

00001f06 <ow_byte_rd>:
    1f06:	8f ef       	ldi	r24, 0xFF	; 255
    1f08:	0c 94 72 0f 	jmp	0x1ee4	; 0x1ee4 <ow_byte_wr>

00001f0c <ow_rom_search>:
    1f0c:	df 92       	push	r13
    1f0e:	ef 92       	push	r14
    1f10:	ff 92       	push	r15
    1f12:	0f 93       	push	r16
    1f14:	1f 93       	push	r17
    1f16:	cf 93       	push	r28
    1f18:	df 93       	push	r29
    1f1a:	e8 2e       	mov	r14, r24
    1f1c:	eb 01       	movw	r28, r22
    1f1e:	0e 94 42 0f 	call	0x1e84	; 0x1e84 <ow_reset>
    1f22:	81 11       	cpse	r24, r1
    1f24:	31 c0       	rjmp	.+98     	; 0x1f88 <ow_rom_search+0x7c>
    1f26:	80 ef       	ldi	r24, 0xF0	; 240
    1f28:	0e 94 72 0f 	call	0x1ee4	; 0x1ee4 <ow_byte_wr>
    1f2c:	f1 2c       	mov	r15, r1
    1f2e:	10 e4       	ldi	r17, 0x40	; 64
    1f30:	98 ef       	ldi	r25, 0xF8	; 248
    1f32:	d9 2e       	mov	r13, r25
    1f34:	d1 0e       	add	r13, r17
    1f36:	81 e0       	ldi	r24, 0x01	; 1
    1f38:	0e 94 5e 0f 	call	0x1ebc	; 0x1ebc <ow_bit_io>
    1f3c:	08 2f       	mov	r16, r24
    1f3e:	81 e0       	ldi	r24, 0x01	; 1
    1f40:	0e 94 5e 0f 	call	0x1ebc	; 0x1ebc <ow_bit_io>
    1f44:	88 23       	and	r24, r24
    1f46:	19 f0       	breq	.+6      	; 0x1f4e <ow_rom_search+0x42>
    1f48:	00 23       	and	r16, r16
    1f4a:	69 f0       	breq	.+26     	; 0x1f66 <ow_rom_search+0x5a>
    1f4c:	20 c0       	rjmp	.+64     	; 0x1f8e <ow_rom_search+0x82>
    1f4e:	01 11       	cpse	r16, r1
    1f50:	0a c0       	rjmp	.+20     	; 0x1f66 <ow_rom_search+0x5a>
    1f52:	1e 15       	cp	r17, r14
    1f54:	30 f0       	brcs	.+12     	; 0x1f62 <ow_rom_search+0x56>
    1f56:	88 81       	ld	r24, Y
    1f58:	80 ff       	sbrs	r24, 0
    1f5a:	05 c0       	rjmp	.+10     	; 0x1f66 <ow_rom_search+0x5a>
    1f5c:	e1 12       	cpse	r14, r17
    1f5e:	01 c0       	rjmp	.+2      	; 0x1f62 <ow_rom_search+0x56>
    1f60:	02 c0       	rjmp	.+4      	; 0x1f66 <ow_rom_search+0x5a>
    1f62:	f1 2e       	mov	r15, r17
    1f64:	01 e0       	ldi	r16, 0x01	; 1
    1f66:	80 2f       	mov	r24, r16
    1f68:	0e 94 5e 0f 	call	0x1ebc	; 0x1ebc <ow_bit_io>
    1f6c:	98 81       	ld	r25, Y
    1f6e:	96 95       	lsr	r25
    1f70:	01 11       	cpse	r16, r1
    1f72:	01 c0       	rjmp	.+2      	; 0x1f76 <ow_rom_search+0x6a>
    1f74:	01 c0       	rjmp	.+2      	; 0x1f78 <ow_rom_search+0x6c>
    1f76:	90 68       	ori	r25, 0x80	; 128
    1f78:	98 83       	st	Y, r25
    1f7a:	11 50       	subi	r17, 0x01	; 1
    1f7c:	1d 11       	cpse	r17, r13
    1f7e:	db cf       	rjmp	.-74     	; 0x1f36 <ow_rom_search+0x2a>
    1f80:	21 96       	adiw	r28, 0x01	; 1
    1f82:	11 11       	cpse	r17, r1
    1f84:	d5 cf       	rjmp	.-86     	; 0x1f30 <ow_rom_search+0x24>
    1f86:	05 c0       	rjmp	.+10     	; 0x1f92 <ow_rom_search+0x86>
    1f88:	ff 24       	eor	r15, r15
    1f8a:	fa 94       	dec	r15
    1f8c:	02 c0       	rjmp	.+4      	; 0x1f92 <ow_rom_search+0x86>
    1f8e:	8e ef       	ldi	r24, 0xFE	; 254
    1f90:	f8 2e       	mov	r15, r24
    1f92:	8f 2d       	mov	r24, r15
    1f94:	df 91       	pop	r29
    1f96:	cf 91       	pop	r28
    1f98:	1f 91       	pop	r17
    1f9a:	0f 91       	pop	r16
    1f9c:	ff 90       	pop	r15
    1f9e:	ef 90       	pop	r14
    1fa0:	df 90       	pop	r13
    1fa2:	08 95       	ret

00001fa4 <ow_command>:
    1fa4:	ff 92       	push	r15
    1fa6:	0f 93       	push	r16
    1fa8:	1f 93       	push	r17
    1faa:	cf 93       	push	r28
    1fac:	df 93       	push	r29
    1fae:	f8 2e       	mov	r15, r24
    1fb0:	eb 01       	movw	r28, r22
    1fb2:	0e 94 42 0f 	call	0x1e84	; 0x1e84 <ow_reset>
    1fb6:	20 97       	sbiw	r28, 0x00	; 0
    1fb8:	69 f0       	breq	.+26     	; 0x1fd4 <ow_command+0x30>
    1fba:	85 e5       	ldi	r24, 0x55	; 85
    1fbc:	0e 94 72 0f 	call	0x1ee4	; 0x1ee4 <ow_byte_wr>
    1fc0:	8e 01       	movw	r16, r28
    1fc2:	08 5f       	subi	r16, 0xF8	; 248
    1fc4:	1f 4f       	sbci	r17, 0xFF	; 255
    1fc6:	89 91       	ld	r24, Y+
    1fc8:	0e 94 72 0f 	call	0x1ee4	; 0x1ee4 <ow_byte_wr>
    1fcc:	c0 17       	cp	r28, r16
    1fce:	d1 07       	cpc	r29, r17
    1fd0:	d1 f7       	brne	.-12     	; 0x1fc6 <ow_command+0x22>
    1fd2:	03 c0       	rjmp	.+6      	; 0x1fda <ow_command+0x36>
    1fd4:	8c ec       	ldi	r24, 0xCC	; 204
    1fd6:	0e 94 72 0f 	call	0x1ee4	; 0x1ee4 <ow_byte_wr>
    1fda:	8f 2d       	mov	r24, r15
    1fdc:	df 91       	pop	r29
    1fde:	cf 91       	pop	r28
    1fe0:	1f 91       	pop	r17
    1fe2:	0f 91       	pop	r16
    1fe4:	ff 90       	pop	r15
    1fe6:	0c 94 72 0f 	jmp	0x1ee4	; 0x1ee4 <ow_byte_wr>

00001fea <mp_rinse>:
    1fea:	ef 92       	push	r14
    1fec:	0f 93       	push	r16
    1fee:	88 23       	and	r24, r24
    1ff0:	d1 f0       	breq	.+52     	; 0x2026 <mp_rinse+0x3c>
    1ff2:	c1 98       	cbi	0x18, 1	; 24
    1ff4:	2f ef       	ldi	r18, 0xFF	; 255
    1ff6:	89 e6       	ldi	r24, 0x69	; 105
    1ff8:	98 e1       	ldi	r25, 0x18	; 24
    1ffa:	21 50       	subi	r18, 0x01	; 1
    1ffc:	80 40       	sbci	r24, 0x00	; 0
    1ffe:	90 40       	sbci	r25, 0x00	; 0
    2000:	e1 f7       	brne	.-8      	; 0x1ffa <mp_rinse+0x10>
    2002:	00 c0       	rjmp	.+0      	; 0x2004 <mp_rinse+0x1a>
    2004:	00 00       	nop
    2006:	ee 24       	eor	r14, r14
    2008:	e3 94       	inc	r14
    200a:	00 e1       	ldi	r16, 0x10	; 16
    200c:	20 e1       	ldi	r18, 0x10	; 16
    200e:	4f e4       	ldi	r20, 0x4F	; 79
    2010:	55 e0       	ldi	r21, 0x05	; 5
    2012:	60 e3       	ldi	r22, 0x30	; 48
    2014:	70 e0       	ldi	r23, 0x00	; 0
    2016:	80 e3       	ldi	r24, 0x30	; 48
    2018:	90 e0       	ldi	r25, 0x00	; 0
    201a:	0e 94 57 03 	call	0x6ae	; 0x6ae <mp_wysBitmap_P>
    201e:	0f 91       	pop	r16
    2020:	ef 90       	pop	r14
    2022:	0c 94 2b 0c 	jmp	0x1856	; 0x1856 <mp_ssd1306_display>
    2026:	c1 9a       	sbi	0x18, 1	; 24
    2028:	0f 91       	pop	r16
    202a:	ef 90       	pop	r14
    202c:	08 95       	ret

0000202e <main>:
    202e:	40 e0       	ldi	r20, 0x00	; 0
    2030:	60 ef       	ldi	r22, 0xF0	; 240
    2032:	82 e0       	ldi	r24, 0x02	; 2
    2034:	0e 94 78 0c 	call	0x18f0	; 0x18f0 <mp_ssd1306_init>
    2038:	81 e8       	ldi	r24, 0x81	; 129
    203a:	0e 94 25 0c 	call	0x184a	; 0x184a <mp_ssd1306_cmd>
    203e:	80 e0       	ldi	r24, 0x00	; 0
    2040:	0e 94 25 0c 	call	0x184a	; 0x184a <mp_ssd1306_cmd>
    2044:	ee 24       	eor	r14, r14
    2046:	e3 94       	inc	r14
    2048:	00 e0       	ldi	r16, 0x00	; 0
    204a:	22 e0       	ldi	r18, 0x02	; 2
    204c:	40 e7       	ldi	r20, 0x70	; 112
    204e:	50 e0       	ldi	r21, 0x00	; 0
    2050:	64 e1       	ldi	r22, 0x14	; 20
    2052:	70 e0       	ldi	r23, 0x00	; 0
    2054:	8a e0       	ldi	r24, 0x0A	; 10
    2056:	90 e0       	ldi	r25, 0x00	; 0
    2058:	0e 94 5b 07 	call	0xeb6	; 0xeb6 <mp_wysText>
    205c:	67 e0       	ldi	r22, 0x07	; 7
    205e:	81 e0       	ldi	r24, 0x01	; 1
    2060:	0e 94 64 0b 	call	0x16c8	; 0x16c8 <mp_startPrzewPrawo>
    2064:	0e 94 2b 0c 	call	0x1856	; 0x1856 <mp_ssd1306_display>
    2068:	ff cf       	rjmp	.-2      	; 0x2068 <main+0x3a>

0000206a <__divmodsi4>:
    206a:	05 2e       	mov	r0, r21
    206c:	97 fb       	bst	r25, 7
    206e:	16 f4       	brtc	.+4      	; 0x2074 <__divmodsi4+0xa>
    2070:	00 94       	com	r0
    2072:	07 d0       	rcall	.+14     	; 0x2082 <__divmodsi4_neg1>
    2074:	57 fd       	sbrc	r21, 7
    2076:	0d d0       	rcall	.+26     	; 0x2092 <__divmodsi4_neg2>
    2078:	0e 94 51 10 	call	0x20a2	; 0x20a2 <__udivmodsi4>
    207c:	07 fc       	sbrc	r0, 7
    207e:	09 d0       	rcall	.+18     	; 0x2092 <__divmodsi4_neg2>
    2080:	7e f4       	brtc	.+30     	; 0x20a0 <__divmodsi4_exit>

00002082 <__divmodsi4_neg1>:
    2082:	90 95       	com	r25
    2084:	80 95       	com	r24
    2086:	70 95       	com	r23
    2088:	61 95       	neg	r22
    208a:	7f 4f       	sbci	r23, 0xFF	; 255
    208c:	8f 4f       	sbci	r24, 0xFF	; 255
    208e:	9f 4f       	sbci	r25, 0xFF	; 255
    2090:	08 95       	ret

00002092 <__divmodsi4_neg2>:
    2092:	50 95       	com	r21
    2094:	40 95       	com	r20
    2096:	30 95       	com	r19
    2098:	21 95       	neg	r18
    209a:	3f 4f       	sbci	r19, 0xFF	; 255
    209c:	4f 4f       	sbci	r20, 0xFF	; 255
    209e:	5f 4f       	sbci	r21, 0xFF	; 255

000020a0 <__divmodsi4_exit>:
    20a0:	08 95       	ret

000020a2 <__udivmodsi4>:
    20a2:	a1 e2       	ldi	r26, 0x21	; 33
    20a4:	1a 2e       	mov	r1, r26
    20a6:	aa 1b       	sub	r26, r26
    20a8:	bb 1b       	sub	r27, r27
    20aa:	fd 01       	movw	r30, r26
    20ac:	0d c0       	rjmp	.+26     	; 0x20c8 <__udivmodsi4_ep>

000020ae <__udivmodsi4_loop>:
    20ae:	aa 1f       	adc	r26, r26
    20b0:	bb 1f       	adc	r27, r27
    20b2:	ee 1f       	adc	r30, r30
    20b4:	ff 1f       	adc	r31, r31
    20b6:	a2 17       	cp	r26, r18
    20b8:	b3 07       	cpc	r27, r19
    20ba:	e4 07       	cpc	r30, r20
    20bc:	f5 07       	cpc	r31, r21
    20be:	20 f0       	brcs	.+8      	; 0x20c8 <__udivmodsi4_ep>
    20c0:	a2 1b       	sub	r26, r18
    20c2:	b3 0b       	sbc	r27, r19
    20c4:	e4 0b       	sbc	r30, r20
    20c6:	f5 0b       	sbc	r31, r21

000020c8 <__udivmodsi4_ep>:
    20c8:	66 1f       	adc	r22, r22
    20ca:	77 1f       	adc	r23, r23
    20cc:	88 1f       	adc	r24, r24
    20ce:	99 1f       	adc	r25, r25
    20d0:	1a 94       	dec	r1
    20d2:	69 f7       	brne	.-38     	; 0x20ae <__udivmodsi4_loop>
    20d4:	60 95       	com	r22
    20d6:	70 95       	com	r23
    20d8:	80 95       	com	r24
    20da:	90 95       	com	r25
    20dc:	9b 01       	movw	r18, r22
    20de:	ac 01       	movw	r20, r24
    20e0:	bd 01       	movw	r22, r26
    20e2:	cf 01       	movw	r24, r30
    20e4:	08 95       	ret

000020e6 <itoa>:
    20e6:	fb 01       	movw	r30, r22
    20e8:	9f 01       	movw	r18, r30
    20ea:	e8 94       	clt
    20ec:	42 30       	cpi	r20, 0x02	; 2
    20ee:	c4 f0       	brlt	.+48     	; 0x2120 <itoa+0x3a>
    20f0:	45 32       	cpi	r20, 0x25	; 37
    20f2:	b4 f4       	brge	.+44     	; 0x2120 <itoa+0x3a>
    20f4:	4a 30       	cpi	r20, 0x0A	; 10
    20f6:	29 f4       	brne	.+10     	; 0x2102 <itoa+0x1c>
    20f8:	97 fb       	bst	r25, 7
    20fa:	1e f4       	brtc	.+6      	; 0x2102 <itoa+0x1c>
    20fc:	90 95       	com	r25
    20fe:	81 95       	neg	r24
    2100:	9f 4f       	sbci	r25, 0xFF	; 255
    2102:	64 2f       	mov	r22, r20
    2104:	77 27       	eor	r23, r23
    2106:	0e 94 a4 10 	call	0x2148	; 0x2148 <__udivmodhi4>
    210a:	80 5d       	subi	r24, 0xD0	; 208
    210c:	8a 33       	cpi	r24, 0x3A	; 58
    210e:	0c f0       	brlt	.+2      	; 0x2112 <itoa+0x2c>
    2110:	89 5d       	subi	r24, 0xD9	; 217
    2112:	81 93       	st	Z+, r24
    2114:	cb 01       	movw	r24, r22
    2116:	00 97       	sbiw	r24, 0x00	; 0
    2118:	a1 f7       	brne	.-24     	; 0x2102 <itoa+0x1c>
    211a:	16 f4       	brtc	.+4      	; 0x2120 <itoa+0x3a>
    211c:	5d e2       	ldi	r21, 0x2D	; 45
    211e:	51 93       	st	Z+, r21
    2120:	10 82       	st	Z, r1
    2122:	c9 01       	movw	r24, r18
    2124:	0c 94 94 10 	jmp	0x2128	; 0x2128 <strrev>

00002128 <strrev>:
    2128:	dc 01       	movw	r26, r24
    212a:	fc 01       	movw	r30, r24
    212c:	67 2f       	mov	r22, r23
    212e:	71 91       	ld	r23, Z+
    2130:	77 23       	and	r23, r23
    2132:	e1 f7       	brne	.-8      	; 0x212c <strrev+0x4>
    2134:	32 97       	sbiw	r30, 0x02	; 2
    2136:	04 c0       	rjmp	.+8      	; 0x2140 <strrev+0x18>
    2138:	7c 91       	ld	r23, X
    213a:	6d 93       	st	X+, r22
    213c:	70 83       	st	Z, r23
    213e:	62 91       	ld	r22, -Z
    2140:	ae 17       	cp	r26, r30
    2142:	bf 07       	cpc	r27, r31
    2144:	c8 f3       	brcs	.-14     	; 0x2138 <strrev+0x10>
    2146:	08 95       	ret

00002148 <__udivmodhi4>:
    2148:	aa 1b       	sub	r26, r26
    214a:	bb 1b       	sub	r27, r27
    214c:	51 e1       	ldi	r21, 0x11	; 17
    214e:	07 c0       	rjmp	.+14     	; 0x215e <__udivmodhi4_ep>

00002150 <__udivmodhi4_loop>:
    2150:	aa 1f       	adc	r26, r26
    2152:	bb 1f       	adc	r27, r27
    2154:	a6 17       	cp	r26, r22
    2156:	b7 07       	cpc	r27, r23
    2158:	10 f0       	brcs	.+4      	; 0x215e <__udivmodhi4_ep>
    215a:	a6 1b       	sub	r26, r22
    215c:	b7 0b       	sbc	r27, r23

0000215e <__udivmodhi4_ep>:
    215e:	88 1f       	adc	r24, r24
    2160:	99 1f       	adc	r25, r25
    2162:	5a 95       	dec	r21
    2164:	a9 f7       	brne	.-22     	; 0x2150 <__udivmodhi4_loop>
    2166:	80 95       	com	r24
    2168:	90 95       	com	r25
    216a:	bc 01       	movw	r22, r24
    216c:	cd 01       	movw	r24, r26
    216e:	08 95       	ret

00002170 <_exit>:
    2170:	f8 94       	cli

00002172 <__stop_program>:
    2172:	ff cf       	rjmp	.-2      	; 0x2172 <__stop_program>
